
STM32G431_TEST.elf:     file format elf32-littlearm

Sections:
Idx Name          Size      VMA       LMA       File off  Algn
  0 .isr_vector   000001d8  08000000  08000000  00001000  2**0
                  CONTENTS, ALLOC, LOAD, READONLY, DATA
  1 .text         00001db4  080001d8  080001d8  000011d8  2**2
                  CONTENTS, ALLOC, LOAD, READONLY, CODE
  2 .rodata       00000010  08001f8c  08001f8c  00002f8c  2**0
                  CONTENTS, ALLOC, LOAD, READONLY, DATA
  3 .ARM.extab    00000000  08001f9c  08001f9c  0000300c  2**0
                  CONTENTS, READONLY
  4 .ARM          00000000  08001f9c  08001f9c  0000300c  2**0
                  CONTENTS, READONLY
  5 .preinit_array 00000000  08001f9c  08001f9c  0000300c  2**0
                  CONTENTS, ALLOC, LOAD, DATA
  6 .init_array   00000004  08001f9c  08001f9c  00002f9c  2**2
                  CONTENTS, ALLOC, LOAD, READONLY, DATA
  7 .fini_array   00000004  08001fa0  08001fa0  00002fa0  2**2
                  CONTENTS, ALLOC, LOAD, READONLY, DATA
  8 .data         0000000c  20000000  08001fa4  00003000  2**2
                  CONTENTS, ALLOC, LOAD, DATA
  9 .bss          000000d4  2000000c  08001fb0  0000300c  2**2
                  ALLOC
 10 ._user_heap_stack 00000600  200000e0  08001fb0  000030e0  2**0
                  ALLOC
 11 .ARM.attributes 00000030  00000000  00000000  0000300c  2**0
                  CONTENTS, READONLY
 12 .comment      00000043  00000000  00000000  0000303c  2**0
                  CONTENTS, READONLY
 13 .debug_frame  0000004c  00000000  00000000  00003080  2**2
                  CONTENTS, READONLY, DEBUGGING, OCTETS

Disassembly of section .text:

080001d8 <__do_global_dtors_aux>:
 80001d8:	b510      	push	{r4, lr}
 80001da:	4c05      	ldr	r4, [pc, #20]	@ (80001f0 <__do_global_dtors_aux+0x18>)
 80001dc:	7823      	ldrb	r3, [r4, #0]
 80001de:	b933      	cbnz	r3, 80001ee <__do_global_dtors_aux+0x16>
 80001e0:	4b04      	ldr	r3, [pc, #16]	@ (80001f4 <__do_global_dtors_aux+0x1c>)
 80001e2:	b113      	cbz	r3, 80001ea <__do_global_dtors_aux+0x12>
 80001e4:	4804      	ldr	r0, [pc, #16]	@ (80001f8 <__do_global_dtors_aux+0x20>)
 80001e6:	f3af 8000 	nop.w
 80001ea:	2301      	movs	r3, #1
 80001ec:	7023      	strb	r3, [r4, #0]
 80001ee:	bd10      	pop	{r4, pc}
 80001f0:	2000000c 	.word	0x2000000c
 80001f4:	00000000 	.word	0x00000000
 80001f8:	08001f74 	.word	0x08001f74

080001fc <frame_dummy>:
 80001fc:	b508      	push	{r3, lr}
 80001fe:	4b03      	ldr	r3, [pc, #12]	@ (800020c <frame_dummy+0x10>)
 8000200:	b11b      	cbz	r3, 800020a <frame_dummy+0xe>
 8000202:	4903      	ldr	r1, [pc, #12]	@ (8000210 <frame_dummy+0x14>)
 8000204:	4803      	ldr	r0, [pc, #12]	@ (8000214 <frame_dummy+0x18>)
 8000206:	f3af 8000 	nop.w
 800020a:	bd08      	pop	{r3, pc}
 800020c:	00000000 	.word	0x00000000
 8000210:	20000010 	.word	0x20000010
 8000214:	08001f74 	.word	0x08001f74

08000218 <SystemClock_Config>:
 8000218:	b510      	push	{r4, lr}
 800021a:	b094      	sub	sp, #80	@ 0x50
 800021c:	2238      	movs	r2, #56	@ 0x38
 800021e:	2100      	movs	r1, #0
 8000220:	a806      	add	r0, sp, #24
 8000222:	f001 fe7b 	bl	8001f1c <memset>
 8000226:	2214      	movs	r2, #20
 8000228:	2100      	movs	r1, #0
 800022a:	a801      	add	r0, sp, #4
 800022c:	f001 fe76 	bl	8001f1c <memset>
 8000230:	f44f 7000 	mov.w	r0, #512	@ 0x200
 8000234:	f000 fd60 	bl	8000cf8 <HAL_PWREx_ControlVoltageScaling>
 8000238:	2201      	movs	r2, #1
 800023a:	f44f 3380 	mov.w	r3, #65536	@ 0x10000
 800023e:	e9cd 2306 	strd	r2, r3, [sp, #24]
 8000242:	2403      	movs	r4, #3
 8000244:	2302      	movs	r3, #2
 8000246:	920f      	str	r2, [sp, #60]	@ 0x3c
 8000248:	a806      	add	r0, sp, #24
 800024a:	2219      	movs	r2, #25
 800024c:	e9cd 340d 	strd	r3, r4, [sp, #52]	@ 0x34
 8000250:	e9cd 2310 	strd	r2, r3, [sp, #64]	@ 0x40
 8000254:	e9cd 3312 	strd	r3, r3, [sp, #72]	@ 0x48
 8000258:	f000 fdae 	bl	8000db8 <HAL_RCC_OscConfig>
 800025c:	b108      	cbz	r0, 8000262 <SystemClock_Config+0x4a>
 800025e:	b672      	cpsid	i
 8000260:	e7fe      	b.n	8000260 <SystemClock_Config+0x48>
 8000262:	e9cd 0003 	strd	r0, r0, [sp, #12]
 8000266:	230f      	movs	r3, #15
 8000268:	9005      	str	r0, [sp, #20]
 800026a:	4621      	mov	r1, r4
 800026c:	a801      	add	r0, sp, #4
 800026e:	e9cd 3401 	strd	r3, r4, [sp, #4]
 8000272:	f000 ffe3 	bl	800123c <HAL_RCC_ClockConfig>
 8000276:	b108      	cbz	r0, 800027c <SystemClock_Config+0x64>
 8000278:	b672      	cpsid	i
 800027a:	e7fe      	b.n	800027a <SystemClock_Config+0x62>
 800027c:	b014      	add	sp, #80	@ 0x50
 800027e:	bd10      	pop	{r4, pc}

08000280 <main>:
 8000280:	b5f0      	push	{r4, r5, r6, r7, lr}
 8000282:	b099      	sub	sp, #100	@ 0x64
 8000284:	f000 fbe2 	bl	8000a4c <HAL_Init>
 8000288:	f7ff ffc6 	bl	8000218 <SystemClock_Config>
 800028c:	2214      	movs	r2, #20
 800028e:	2100      	movs	r1, #0
 8000290:	a80b      	add	r0, sp, #44	@ 0x2c
 8000292:	f001 fe43 	bl	8001f1c <memset>
 8000296:	4b6d      	ldr	r3, [pc, #436]	@ (800044c <main+0x1cc>)
 8000298:	486d      	ldr	r0, [pc, #436]	@ (8000450 <main+0x1d0>)
 800029a:	6cda      	ldr	r2, [r3, #76]	@ 0x4c
 800029c:	f042 0204 	orr.w	r2, r2, #4
 80002a0:	64da      	str	r2, [r3, #76]	@ 0x4c
 80002a2:	6cda      	ldr	r2, [r3, #76]	@ 0x4c
 80002a4:	f002 0204 	and.w	r2, r2, #4
 80002a8:	9200      	str	r2, [sp, #0]
 80002aa:	9a00      	ldr	r2, [sp, #0]
 80002ac:	6cda      	ldr	r2, [r3, #76]	@ 0x4c
 80002ae:	f042 0220 	orr.w	r2, r2, #32
 80002b2:	64da      	str	r2, [r3, #76]	@ 0x4c
 80002b4:	6cda      	ldr	r2, [r3, #76]	@ 0x4c
 80002b6:	f002 0220 	and.w	r2, r2, #32
 80002ba:	9201      	str	r2, [sp, #4]
 80002bc:	9a01      	ldr	r2, [sp, #4]
 80002be:	6cda      	ldr	r2, [r3, #76]	@ 0x4c
 80002c0:	f042 0202 	orr.w	r2, r2, #2
 80002c4:	64da      	str	r2, [r3, #76]	@ 0x4c
 80002c6:	6cda      	ldr	r2, [r3, #76]	@ 0x4c
 80002c8:	f002 0202 	and.w	r2, r2, #2
 80002cc:	9202      	str	r2, [sp, #8]
 80002ce:	9a02      	ldr	r2, [sp, #8]
 80002d0:	6cda      	ldr	r2, [r3, #76]	@ 0x4c
 80002d2:	f042 0201 	orr.w	r2, r2, #1
 80002d6:	64da      	str	r2, [r3, #76]	@ 0x4c
 80002d8:	6cdb      	ldr	r3, [r3, #76]	@ 0x4c
 80002da:	f003 0301 	and.w	r3, r3, #1
 80002de:	2200      	movs	r2, #0
 80002e0:	9303      	str	r3, [sp, #12]
 80002e2:	f44f 41a2 	mov.w	r1, #20736	@ 0x5100
 80002e6:	2400      	movs	r4, #0
 80002e8:	9b03      	ldr	r3, [sp, #12]
 80002ea:	f44f 5600 	mov.w	r6, #8192	@ 0x2000
 80002ee:	f000 fcfd 	bl	8000cec <HAL_GPIO_WritePin>
 80002f2:	4858      	ldr	r0, [pc, #352]	@ (8000454 <main+0x1d4>)
 80002f4:	940d      	str	r4, [sp, #52]	@ 0x34
 80002f6:	a90b      	add	r1, sp, #44	@ 0x2c
 80002f8:	e9cd 640b 	strd	r6, r4, [sp, #44]	@ 0x2c
 80002fc:	f000 fc28 	bl	8000b50 <HAL_GPIO_Init>
 8000300:	f44f 42a2 	mov.w	r2, #20736	@ 0x5100
 8000304:	2301      	movs	r3, #1
 8000306:	4852      	ldr	r0, [pc, #328]	@ (8000450 <main+0x1d0>)
 8000308:	a90b      	add	r1, sp, #44	@ 0x2c
 800030a:	e9cd 230b 	strd	r2, r3, [sp, #44]	@ 0x2c
 800030e:	e9cd 440d 	strd	r4, r4, [sp, #52]	@ 0x34
 8000312:	f000 fc1d 	bl	8000b50 <HAL_GPIO_Init>
 8000316:	23e0      	movs	r3, #224	@ 0xe0
 8000318:	484d      	ldr	r0, [pc, #308]	@ (8000450 <main+0x1d0>)
 800031a:	940d      	str	r4, [sp, #52]	@ 0x34
 800031c:	a90b      	add	r1, sp, #44	@ 0x2c
 800031e:	e9cd 340b 	strd	r3, r4, [sp, #44]	@ 0x2c
 8000322:	f000 fc15 	bl	8000b50 <HAL_GPIO_Init>
 8000326:	484c      	ldr	r0, [pc, #304]	@ (8000458 <main+0x1d8>)
 8000328:	494c      	ldr	r1, [pc, #304]	@ (800045c <main+0x1dc>)
 800032a:	6084      	str	r4, [r0, #8]
 800032c:	f44f 7382 	mov.w	r3, #260	@ 0x104
 8000330:	e9c0 1300 	strd	r1, r3, [r0]
 8000334:	f44f 63e0 	mov.w	r3, #1792	@ 0x700
 8000338:	e9c0 3403 	strd	r3, r4, [r0, #12]
 800033c:	f44f 7500 	mov.w	r5, #512	@ 0x200
 8000340:	2308      	movs	r3, #8
 8000342:	2207      	movs	r2, #7
 8000344:	e9c0 5306 	strd	r5, r3, [r0, #24]
 8000348:	e9c0 4408 	strd	r4, r4, [r0, #32]
 800034c:	e9c0 240b 	strd	r2, r4, [r0, #44]	@ 0x2c
 8000350:	6144      	str	r4, [r0, #20]
 8000352:	6284      	str	r4, [r0, #40]	@ 0x28
 8000354:	6343      	str	r3, [r0, #52]	@ 0x34
 8000356:	f001 f93d 	bl	80015d4 <HAL_SPI_Init>
 800035a:	4605      	mov	r5, r0
 800035c:	b108      	cbz	r0, 8000362 <main+0xe2>
 800035e:	b672      	cpsid	i
 8000360:	e7fe      	b.n	8000360 <main+0xe0>
 8000362:	4601      	mov	r1, r0
 8000364:	221c      	movs	r2, #28
 8000366:	a804      	add	r0, sp, #16
 8000368:	f001 fdd8 	bl	8001f1c <memset>
 800036c:	4c3c      	ldr	r4, [pc, #240]	@ (8000460 <main+0x1e0>)
 800036e:	2234      	movs	r2, #52	@ 0x34
 8000370:	4629      	mov	r1, r5
 8000372:	a80b      	add	r0, sp, #44	@ 0x2c
 8000374:	f001 fdd2 	bl	8001f1c <memset>
 8000378:	4b3a      	ldr	r3, [pc, #232]	@ (8000464 <main+0x1e4>)
 800037a:	60a5      	str	r5, [r4, #8]
 800037c:	f64f 77ff 	movw	r7, #65535	@ 0xffff
 8000380:	4620      	mov	r0, r4
 8000382:	e9c4 3500 	strd	r3, r5, [r4]
 8000386:	e9c4 7503 	strd	r7, r5, [r4, #12]
 800038a:	e9c4 5505 	strd	r5, r5, [r4, #20]
 800038e:	f001 fbc9 	bl	8001b24 <HAL_TIM_Base_Init>
 8000392:	b108      	cbz	r0, 8000398 <main+0x118>
 8000394:	b672      	cpsid	i
 8000396:	e7fe      	b.n	8000396 <main+0x116>
 8000398:	4620      	mov	r0, r4
 800039a:	f001 fbf3 	bl	8001b84 <HAL_TIM_PWM_Init>
 800039e:	4602      	mov	r2, r0
 80003a0:	b108      	cbz	r0, 80003a6 <main+0x126>
 80003a2:	b672      	cpsid	i
 80003a4:	e7fe      	b.n	80003a4 <main+0x124>
 80003a6:	e9cd 0006 	strd	r0, r0, [sp, #24]
 80003aa:	e9cd 0008 	strd	r0, r0, [sp, #32]
 80003ae:	2360      	movs	r3, #96	@ 0x60
 80003b0:	900a      	str	r0, [sp, #40]	@ 0x28
 80003b2:	a904      	add	r1, sp, #16
 80003b4:	4620      	mov	r0, r4
 80003b6:	e9cd 3704 	strd	r3, r7, [sp, #16]
 80003ba:	f001 fc53 	bl	8001c64 <HAL_TIM_PWM_ConfigChannel>
 80003be:	b108      	cbz	r0, 80003c4 <main+0x144>
 80003c0:	b672      	cpsid	i
 80003c2:	e7fe      	b.n	80003c2 <main+0x142>
 80003c4:	e9cd 000b 	strd	r0, r0, [sp, #44]	@ 0x2c
 80003c8:	e9cd 000d 	strd	r0, r0, [sp, #52]	@ 0x34
 80003cc:	e9cd 060f 	strd	r0, r6, [sp, #60]	@ 0x3c
 80003d0:	9011      	str	r0, [sp, #68]	@ 0x44
 80003d2:	9017      	str	r0, [sp, #92]	@ 0x5c
 80003d4:	a90b      	add	r1, sp, #44	@ 0x2c
 80003d6:	4620      	mov	r0, r4
 80003d8:	f001 fd56 	bl	8001e88 <HAL_TIMEx_ConfigBreakDeadTime>
 80003dc:	4605      	mov	r5, r0
 80003de:	b108      	cbz	r0, 80003e4 <main+0x164>
 80003e0:	b672      	cpsid	i
 80003e2:	e7fe      	b.n	80003e2 <main+0x162>
 80003e4:	4620      	mov	r0, r4
 80003e6:	f000 faa5 	bl	8000934 <HAL_TIM_MspPostInit>
 80003ea:	6823      	ldr	r3, [r4, #0]
 80003ec:	4629      	mov	r1, r5
 80003ee:	635f      	str	r7, [r3, #52]	@ 0x34
 80003f0:	4620      	mov	r0, r4
 80003f2:	f001 fd47 	bl	8001e84 <HAL_TIM_PWM_Start>
 80003f6:	f000 f995 	bl	8000724 <ST7735_Init>
 80003fa:	4628      	mov	r0, r5
 80003fc:	f000 fa2e 	bl	800085c <ST7735_FillScreen>
 8000400:	2000      	movs	r0, #0
 8000402:	f000 fa2b 	bl	800085c <ST7735_FillScreen>
 8000406:	201f      	movs	r0, #31
 8000408:	f000 fa28 	bl	800085c <ST7735_FillScreen>
 800040c:	f44f 4078 	mov.w	r0, #63488	@ 0xf800
 8000410:	f000 fa24 	bl	800085c <ST7735_FillScreen>
 8000414:	f44f 60fc 	mov.w	r0, #2016	@ 0x7e0
 8000418:	f000 fa20 	bl	800085c <ST7735_FillScreen>
 800041c:	f240 70ff 	movw	r0, #2047	@ 0x7ff
 8000420:	f000 fa1c 	bl	800085c <ST7735_FillScreen>
 8000424:	f64f 001f 	movw	r0, #63519	@ 0xf81f
 8000428:	f000 fa18 	bl	800085c <ST7735_FillScreen>
 800042c:	f64f 70e0 	movw	r0, #65504	@ 0xffe0
 8000430:	f000 fa14 	bl	800085c <ST7735_FillScreen>
 8000434:	f64f 70ff 	movw	r0, #65535	@ 0xffff
 8000438:	f000 fa10 	bl	800085c <ST7735_FillScreen>
 800043c:	f64f 5060 	movw	r0, #64864	@ 0xfd60
 8000440:	f000 fa0c 	bl	800085c <ST7735_FillScreen>
 8000444:	f240 70ef 	movw	r0, #2031	@ 0x7ef
 8000448:	e7d8      	b.n	80003fc <main+0x17c>
 800044a:	bf00      	nop
 800044c:	40021000 	.word	0x40021000
 8000450:	48000400 	.word	0x48000400
 8000454:	48000800 	.word	0x48000800
 8000458:	20000078 	.word	0x20000078
 800045c:	40003800 	.word	0x40003800
 8000460:	2000002c 	.word	0x2000002c
 8000464:	40014800 	.word	0x40014800

08000468 <HAL_IncTick>:
 8000468:	4a05      	ldr	r2, [pc, #20]	@ (8000480 <HAL_IncTick+0x18>)
 800046a:	4906      	ldr	r1, [pc, #24]	@ (8000484 <HAL_IncTick+0x1c>)
 800046c:	6813      	ldr	r3, [r2, #0]
 800046e:	6809      	ldr	r1, [r1, #0]
 8000470:	440b      	add	r3, r1
 8000472:	6013      	str	r3, [r2, #0]
 8000474:	4a04      	ldr	r2, [pc, #16]	@ (8000488 <HAL_IncTick+0x20>)
 8000476:	6813      	ldr	r3, [r2, #0]
 8000478:	3301      	adds	r3, #1
 800047a:	6013      	str	r3, [r2, #0]
 800047c:	4770      	bx	lr
 800047e:	bf00      	nop
 8000480:	200000dc 	.word	0x200000dc
 8000484:	20000004 	.word	0x20000004
 8000488:	20000028 	.word	0x20000028

0800048c <lcd7735_senddata>:
 800048c:	b507      	push	{r0, r1, r2, lr}
 800048e:	2301      	movs	r3, #1
 8000490:	f88d 0007 	strb.w	r0, [sp, #7]
 8000494:	461a      	mov	r2, r3
 8000496:	f10d 0107 	add.w	r1, sp, #7
 800049a:	4803      	ldr	r0, [pc, #12]	@ (80004a8 <lcd7735_senddata+0x1c>)
 800049c:	f001 f908 	bl	80016b0 <HAL_SPI_Transmit>
 80004a0:	b003      	add	sp, #12
 80004a2:	f85d fb04 	ldr.w	pc, [sp], #4
 80004a6:	bf00      	nop
 80004a8:	20000078 	.word	0x20000078

080004ac <lcd7735_sendCmd>:
 80004ac:	b510      	push	{r4, lr}
 80004ae:	2200      	movs	r2, #0
 80004b0:	4604      	mov	r4, r0
 80004b2:	f44f 7180 	mov.w	r1, #256	@ 0x100
 80004b6:	4804      	ldr	r0, [pc, #16]	@ (80004c8 <lcd7735_sendCmd+0x1c>)
 80004b8:	f000 fc18 	bl	8000cec <HAL_GPIO_WritePin>
 80004bc:	4620      	mov	r0, r4
 80004be:	e8bd 4010 	ldmia.w	sp!, {r4, lr}
 80004c2:	f7ff bfe3 	b.w	800048c <lcd7735_senddata>
 80004c6:	bf00      	nop
 80004c8:	48000400 	.word	0x48000400

080004cc <lcd7735_sendData>:
 80004cc:	b510      	push	{r4, lr}
 80004ce:	2201      	movs	r2, #1
 80004d0:	4604      	mov	r4, r0
 80004d2:	f44f 7180 	mov.w	r1, #256	@ 0x100
 80004d6:	4804      	ldr	r0, [pc, #16]	@ (80004e8 <lcd7735_sendData+0x1c>)
 80004d8:	f000 fc08 	bl	8000cec <HAL_GPIO_WritePin>
 80004dc:	4620      	mov	r0, r4
 80004de:	e8bd 4010 	ldmia.w	sp!, {r4, lr}
 80004e2:	f7ff bfd3 	b.w	800048c <lcd7735_senddata>
 80004e6:	bf00      	nop
 80004e8:	48000400 	.word	0x48000400

080004ec <ST7735_Init_Command1>:
 80004ec:	b508      	push	{r3, lr}
 80004ee:	2001      	movs	r0, #1
 80004f0:	f7ff ffdc 	bl	80004ac <lcd7735_sendCmd>
 80004f4:	2096      	movs	r0, #150	@ 0x96
 80004f6:	f000 fabf 	bl	8000a78 <HAL_Delay>
 80004fa:	2011      	movs	r0, #17
 80004fc:	f7ff ffd6 	bl	80004ac <lcd7735_sendCmd>
 8000500:	f44f 70fa 	mov.w	r0, #500	@ 0x1f4
 8000504:	f000 fab8 	bl	8000a78 <HAL_Delay>
 8000508:	20b1      	movs	r0, #177	@ 0xb1
 800050a:	f7ff ffcf 	bl	80004ac <lcd7735_sendCmd>
 800050e:	2001      	movs	r0, #1
 8000510:	f7ff ffdc 	bl	80004cc <lcd7735_sendData>
 8000514:	202c      	movs	r0, #44	@ 0x2c
 8000516:	f7ff ffd9 	bl	80004cc <lcd7735_sendData>
 800051a:	202d      	movs	r0, #45	@ 0x2d
 800051c:	f7ff ffd6 	bl	80004cc <lcd7735_sendData>
 8000520:	20b2      	movs	r0, #178	@ 0xb2
 8000522:	f7ff ffc3 	bl	80004ac <lcd7735_sendCmd>
 8000526:	2001      	movs	r0, #1
 8000528:	f7ff ffd0 	bl	80004cc <lcd7735_sendData>
 800052c:	202c      	movs	r0, #44	@ 0x2c
 800052e:	f7ff ffcd 	bl	80004cc <lcd7735_sendData>
 8000532:	202d      	movs	r0, #45	@ 0x2d
 8000534:	f7ff ffca 	bl	80004cc <lcd7735_sendData>
 8000538:	20b3      	movs	r0, #179	@ 0xb3
 800053a:	f7ff ffb7 	bl	80004ac <lcd7735_sendCmd>
 800053e:	2001      	movs	r0, #1
 8000540:	f7ff ffc4 	bl	80004cc <lcd7735_sendData>
 8000544:	202c      	movs	r0, #44	@ 0x2c
 8000546:	f7ff ffc1 	bl	80004cc <lcd7735_sendData>
 800054a:	202d      	movs	r0, #45	@ 0x2d
 800054c:	f7ff ffbe 	bl	80004cc <lcd7735_sendData>
 8000550:	2001      	movs	r0, #1
 8000552:	f7ff ffbb 	bl	80004cc <lcd7735_sendData>
 8000556:	202c      	movs	r0, #44	@ 0x2c
 8000558:	f7ff ffb8 	bl	80004cc <lcd7735_sendData>
 800055c:	202d      	movs	r0, #45	@ 0x2d
 800055e:	f7ff ffb5 	bl	80004cc <lcd7735_sendData>
 8000562:	20b4      	movs	r0, #180	@ 0xb4
 8000564:	f7ff ffa2 	bl	80004ac <lcd7735_sendCmd>
 8000568:	2007      	movs	r0, #7
 800056a:	f7ff ffaf 	bl	80004cc <lcd7735_sendData>
 800056e:	20c0      	movs	r0, #192	@ 0xc0
 8000570:	f7ff ff9c 	bl	80004ac <lcd7735_sendCmd>
 8000574:	20a2      	movs	r0, #162	@ 0xa2
 8000576:	f7ff ffa9 	bl	80004cc <lcd7735_sendData>
 800057a:	2002      	movs	r0, #2
 800057c:	f7ff ffa6 	bl	80004cc <lcd7735_sendData>
 8000580:	2084      	movs	r0, #132	@ 0x84
 8000582:	f7ff ffa3 	bl	80004cc <lcd7735_sendData>
 8000586:	20c1      	movs	r0, #193	@ 0xc1
 8000588:	f7ff ff90 	bl	80004ac <lcd7735_sendCmd>
 800058c:	20c5      	movs	r0, #197	@ 0xc5
 800058e:	f7ff ff9d 	bl	80004cc <lcd7735_sendData>
 8000592:	20c2      	movs	r0, #194	@ 0xc2
 8000594:	f7ff ff8a 	bl	80004ac <lcd7735_sendCmd>
 8000598:	200a      	movs	r0, #10
 800059a:	f7ff ff97 	bl	80004cc <lcd7735_sendData>
 800059e:	2000      	movs	r0, #0
 80005a0:	f7ff ff94 	bl	80004cc <lcd7735_sendData>
 80005a4:	20c3      	movs	r0, #195	@ 0xc3
 80005a6:	f7ff ff81 	bl	80004ac <lcd7735_sendCmd>
 80005aa:	208a      	movs	r0, #138	@ 0x8a
 80005ac:	f7ff ff8e 	bl	80004cc <lcd7735_sendData>
 80005b0:	202a      	movs	r0, #42	@ 0x2a
 80005b2:	f7ff ff8b 	bl	80004cc <lcd7735_sendData>
 80005b6:	20c4      	movs	r0, #196	@ 0xc4
 80005b8:	f7ff ff78 	bl	80004ac <lcd7735_sendCmd>
 80005bc:	208a      	movs	r0, #138	@ 0x8a
 80005be:	f7ff ff85 	bl	80004cc <lcd7735_sendData>
 80005c2:	20ee      	movs	r0, #238	@ 0xee
 80005c4:	f7ff ff82 	bl	80004cc <lcd7735_sendData>
 80005c8:	20c5      	movs	r0, #197	@ 0xc5
 80005ca:	f7ff ff6f 	bl	80004ac <lcd7735_sendCmd>
 80005ce:	200e      	movs	r0, #14
 80005d0:	f7ff ff7c 	bl	80004cc <lcd7735_sendData>
 80005d4:	2020      	movs	r0, #32
 80005d6:	f7ff ff69 	bl	80004ac <lcd7735_sendCmd>
 80005da:	2036      	movs	r0, #54	@ 0x36
 80005dc:	f7ff ff66 	bl	80004ac <lcd7735_sendCmd>
 80005e0:	2060      	movs	r0, #96	@ 0x60
 80005e2:	f7ff ff73 	bl	80004cc <lcd7735_sendData>
 80005e6:	203a      	movs	r0, #58	@ 0x3a
 80005e8:	f7ff ff60 	bl	80004ac <lcd7735_sendCmd>
 80005ec:	e8bd 4008 	ldmia.w	sp!, {r3, lr}
 80005f0:	2005      	movs	r0, #5
 80005f2:	f7ff bf6b 	b.w	80004cc <lcd7735_sendData>

080005f6 <ST7735_Init_Command2>:
 80005f6:	b508      	push	{r3, lr}
 80005f8:	202a      	movs	r0, #42	@ 0x2a
 80005fa:	f7ff ff57 	bl	80004ac <lcd7735_sendCmd>
 80005fe:	2000      	movs	r0, #0
 8000600:	f7ff ff64 	bl	80004cc <lcd7735_sendData>
 8000604:	2000      	movs	r0, #0
 8000606:	f7ff ff61 	bl	80004cc <lcd7735_sendData>
 800060a:	2000      	movs	r0, #0
 800060c:	f7ff ff5e 	bl	80004cc <lcd7735_sendData>
 8000610:	207f      	movs	r0, #127	@ 0x7f
 8000612:	f7ff ff5b 	bl	80004cc <lcd7735_sendData>
 8000616:	202b      	movs	r0, #43	@ 0x2b
 8000618:	f7ff ff48 	bl	80004ac <lcd7735_sendCmd>
 800061c:	2000      	movs	r0, #0
 800061e:	f7ff ff55 	bl	80004cc <lcd7735_sendData>
 8000622:	2000      	movs	r0, #0
 8000624:	f7ff ff52 	bl	80004cc <lcd7735_sendData>
 8000628:	2000      	movs	r0, #0
 800062a:	f7ff ff4f 	bl	80004cc <lcd7735_sendData>
 800062e:	e8bd 4008 	ldmia.w	sp!, {r3, lr}
 8000632:	207f      	movs	r0, #127	@ 0x7f
 8000634:	f7ff bf4a 	b.w	80004cc <lcd7735_sendData>

08000638 <ST7735_Init_Command3>:
 8000638:	b508      	push	{r3, lr}
 800063a:	20e0      	movs	r0, #224	@ 0xe0
 800063c:	f7ff ff36 	bl	80004ac <lcd7735_sendCmd>
 8000640:	2002      	movs	r0, #2
 8000642:	f7ff ff43 	bl	80004cc <lcd7735_sendData>
 8000646:	201c      	movs	r0, #28
 8000648:	f7ff ff40 	bl	80004cc <lcd7735_sendData>
 800064c:	2007      	movs	r0, #7
 800064e:	f7ff ff3d 	bl	80004cc <lcd7735_sendData>
 8000652:	2012      	movs	r0, #18
 8000654:	f7ff ff3a 	bl	80004cc <lcd7735_sendData>
 8000658:	2037      	movs	r0, #55	@ 0x37
 800065a:	f7ff ff37 	bl	80004cc <lcd7735_sendData>
 800065e:	2032      	movs	r0, #50	@ 0x32
 8000660:	f7ff ff34 	bl	80004cc <lcd7735_sendData>
 8000664:	2029      	movs	r0, #41	@ 0x29
 8000666:	f7ff ff31 	bl	80004cc <lcd7735_sendData>
 800066a:	202d      	movs	r0, #45	@ 0x2d
 800066c:	f7ff ff2e 	bl	80004cc <lcd7735_sendData>
 8000670:	2029      	movs	r0, #41	@ 0x29
 8000672:	f7ff ff2b 	bl	80004cc <lcd7735_sendData>
 8000676:	2025      	movs	r0, #37	@ 0x25
 8000678:	f7ff ff28 	bl	80004cc <lcd7735_sendData>
 800067c:	202b      	movs	r0, #43	@ 0x2b
 800067e:	f7ff ff25 	bl	80004cc <lcd7735_sendData>
 8000682:	2039      	movs	r0, #57	@ 0x39
 8000684:	f7ff ff22 	bl	80004cc <lcd7735_sendData>
 8000688:	2000      	movs	r0, #0
 800068a:	f7ff ff1f 	bl	80004cc <lcd7735_sendData>
 800068e:	2001      	movs	r0, #1
 8000690:	f7ff ff1c 	bl	80004cc <lcd7735_sendData>
 8000694:	2003      	movs	r0, #3
 8000696:	f7ff ff19 	bl	80004cc <lcd7735_sendData>
 800069a:	2010      	movs	r0, #16
 800069c:	f7ff ff16 	bl	80004cc <lcd7735_sendData>
 80006a0:	20e1      	movs	r0, #225	@ 0xe1
 80006a2:	f7ff ff03 	bl	80004ac <lcd7735_sendCmd>
 80006a6:	2003      	movs	r0, #3
 80006a8:	f7ff ff10 	bl	80004cc <lcd7735_sendData>
 80006ac:	201d      	movs	r0, #29
 80006ae:	f7ff ff0d 	bl	80004cc <lcd7735_sendData>
 80006b2:	2007      	movs	r0, #7
 80006b4:	f7ff ff0a 	bl	80004cc <lcd7735_sendData>
 80006b8:	2006      	movs	r0, #6
 80006ba:	f7ff ff07 	bl	80004cc <lcd7735_sendData>
 80006be:	202e      	movs	r0, #46	@ 0x2e
 80006c0:	f7ff ff04 	bl	80004cc <lcd7735_sendData>
 80006c4:	202c      	movs	r0, #44	@ 0x2c
 80006c6:	f7ff ff01 	bl	80004cc <lcd7735_sendData>
 80006ca:	2029      	movs	r0, #41	@ 0x29
 80006cc:	f7ff fefe 	bl	80004cc <lcd7735_sendData>
 80006d0:	202d      	movs	r0, #45	@ 0x2d
 80006d2:	f7ff fefb 	bl	80004cc <lcd7735_sendData>
 80006d6:	202e      	movs	r0, #46	@ 0x2e
 80006d8:	f7ff fef8 	bl	80004cc <lcd7735_sendData>
 80006dc:	202e      	movs	r0, #46	@ 0x2e
 80006de:	f7ff fef5 	bl	80004cc <lcd7735_sendData>
 80006e2:	2037      	movs	r0, #55	@ 0x37
 80006e4:	f7ff fef2 	bl	80004cc <lcd7735_sendData>
 80006e8:	203f      	movs	r0, #63	@ 0x3f
 80006ea:	f7ff feef 	bl	80004cc <lcd7735_sendData>
 80006ee:	2000      	movs	r0, #0
 80006f0:	f7ff feec 	bl	80004cc <lcd7735_sendData>
 80006f4:	2000      	movs	r0, #0
 80006f6:	f7ff fee9 	bl	80004cc <lcd7735_sendData>
 80006fa:	2002      	movs	r0, #2
 80006fc:	f7ff fee6 	bl	80004cc <lcd7735_sendData>
 8000700:	2010      	movs	r0, #16
 8000702:	f7ff fee3 	bl	80004cc <lcd7735_sendData>
 8000706:	2013      	movs	r0, #19
 8000708:	f7ff fed0 	bl	80004ac <lcd7735_sendCmd>
 800070c:	200a      	movs	r0, #10
 800070e:	f000 f9b3 	bl	8000a78 <HAL_Delay>
 8000712:	2029      	movs	r0, #41	@ 0x29
 8000714:	f7ff feca 	bl	80004ac <lcd7735_sendCmd>
 8000718:	e8bd 4008 	ldmia.w	sp!, {r3, lr}
 800071c:	2064      	movs	r0, #100	@ 0x64
 800071e:	f000 b9ab 	b.w	8000a78 <HAL_Delay>
	...

08000724 <ST7735_Init>:
 8000724:	b510      	push	{r4, lr}
 8000726:	4c12      	ldr	r4, [pc, #72]	@ (8000770 <ST7735_Init+0x4c>)
 8000728:	2200      	movs	r2, #0
 800072a:	4620      	mov	r0, r4
 800072c:	f44f 5180 	mov.w	r1, #4096	@ 0x1000
 8000730:	f000 fadc 	bl	8000cec <HAL_GPIO_WritePin>
 8000734:	2200      	movs	r2, #0
 8000736:	f44f 4180 	mov.w	r1, #16384	@ 0x4000
 800073a:	4620      	mov	r0, r4
 800073c:	f000 fad6 	bl	8000cec <HAL_GPIO_WritePin>
 8000740:	2007      	movs	r0, #7
 8000742:	f000 f999 	bl	8000a78 <HAL_Delay>
 8000746:	4620      	mov	r0, r4
 8000748:	2201      	movs	r2, #1
 800074a:	f44f 4180 	mov.w	r1, #16384	@ 0x4000
 800074e:	f000 facd 	bl	8000cec <HAL_GPIO_WritePin>
 8000752:	f7ff fecb 	bl	80004ec <ST7735_Init_Command1>
 8000756:	f7ff ff4e 	bl	80005f6 <ST7735_Init_Command2>
 800075a:	f7ff ff6d 	bl	8000638 <ST7735_Init_Command3>
 800075e:	4620      	mov	r0, r4
 8000760:	2201      	movs	r2, #1
 8000762:	e8bd 4010 	ldmia.w	sp!, {r4, lr}
 8000766:	f44f 5180 	mov.w	r1, #4096	@ 0x1000
 800076a:	f000 babf 	b.w	8000cec <HAL_GPIO_WritePin>
 800076e:	bf00      	nop
 8000770:	48000400 	.word	0x48000400

08000774 <ST7735_SetAddressWindow>:
 8000774:	b5f8      	push	{r3, r4, r5, r6, r7, lr}
 8000776:	4607      	mov	r7, r0
 8000778:	202a      	movs	r0, #42	@ 0x2a
 800077a:	460d      	mov	r5, r1
 800077c:	4616      	mov	r6, r2
 800077e:	461c      	mov	r4, r3
 8000780:	f7ff fe94 	bl	80004ac <lcd7735_sendCmd>
 8000784:	2000      	movs	r0, #0
 8000786:	f7ff fea1 	bl	80004cc <lcd7735_sendData>
 800078a:	4638      	mov	r0, r7
 800078c:	f7ff fe9e 	bl	80004cc <lcd7735_sendData>
 8000790:	2000      	movs	r0, #0
 8000792:	f7ff fe9b 	bl	80004cc <lcd7735_sendData>
 8000796:	4630      	mov	r0, r6
 8000798:	f7ff fe98 	bl	80004cc <lcd7735_sendData>
 800079c:	202b      	movs	r0, #43	@ 0x2b
 800079e:	f7ff fe85 	bl	80004ac <lcd7735_sendCmd>
 80007a2:	2000      	movs	r0, #0
 80007a4:	f7ff fe92 	bl	80004cc <lcd7735_sendData>
 80007a8:	4628      	mov	r0, r5
 80007aa:	f7ff fe8f 	bl	80004cc <lcd7735_sendData>
 80007ae:	2000      	movs	r0, #0
 80007b0:	f7ff fe8c 	bl	80004cc <lcd7735_sendData>
 80007b4:	4620      	mov	r0, r4
 80007b6:	f7ff fe89 	bl	80004cc <lcd7735_sendData>
 80007ba:	e8bd 40f8 	ldmia.w	sp!, {r3, r4, r5, r6, r7, lr}
 80007be:	202c      	movs	r0, #44	@ 0x2c
 80007c0:	f7ff be74 	b.w	80004ac <lcd7735_sendCmd>

080007c4 <ST7735_FillRectangle.part.0>:
 80007c4:	e92d 41f0 	stmdb	sp!, {r4, r5, r6, r7, r8, lr}
 80007c8:	461c      	mov	r4, r3
 80007ca:	1883      	adds	r3, r0, r2
 80007cc:	2ba0      	cmp	r3, #160	@ 0xa0
 80007ce:	4615      	mov	r5, r2
 80007d0:	eb01 0304 	add.w	r3, r1, r4
 80007d4:	bfc4      	itt	gt
 80007d6:	f1c0 05a0 	rsbgt	r5, r0, #160	@ 0xa0
 80007da:	b2ad      	uxthgt	r5, r5
 80007dc:	2b80      	cmp	r3, #128	@ 0x80
 80007de:	bfc8      	it	gt
 80007e0:	f1c1 0480 	rsbgt	r4, r1, #128	@ 0x80
 80007e4:	460f      	mov	r7, r1
 80007e6:	4606      	mov	r6, r0
 80007e8:	f04f 0200 	mov.w	r2, #0
 80007ec:	481a      	ldr	r0, [pc, #104]	@ (8000858 <ST7735_FillRectangle.part.0+0x94>)
 80007ee:	f8bd 8018 	ldrh.w	r8, [sp, #24]
 80007f2:	f44f 5180 	mov.w	r1, #4096	@ 0x1000
 80007f6:	bfc8      	it	gt
 80007f8:	b2a4      	uxthgt	r4, r4
 80007fa:	f000 fa77 	bl	8000cec <HAL_GPIO_WritePin>
 80007fe:	b2f9      	uxtb	r1, r7
 8000800:	b2f0      	uxtb	r0, r6
 8000802:	1e4b      	subs	r3, r1, #1
 8000804:	1e42      	subs	r2, r0, #1
 8000806:	4423      	add	r3, r4
 8000808:	442a      	add	r2, r5
 800080a:	b2db      	uxtb	r3, r3
 800080c:	b2d2      	uxtb	r2, r2
 800080e:	f7ff ffb1 	bl	8000774 <ST7735_SetAddressWindow>
 8000812:	4811      	ldr	r0, [pc, #68]	@ (8000858 <ST7735_FillRectangle.part.0+0x94>)
 8000814:	2201      	movs	r2, #1
 8000816:	f44f 7180 	mov.w	r1, #256	@ 0x100
 800081a:	f000 fa67 	bl	8000cec <HAL_GPIO_WritePin>
 800081e:	ea4f 2718 	mov.w	r7, r8, lsr #8
 8000822:	fa5f f888 	uxtb.w	r8, r8
 8000826:	b9a4      	cbnz	r4, 8000852 <ST7735_FillRectangle.part.0+0x8e>
 8000828:	e8bd 41f0 	ldmia.w	sp!, {r4, r5, r6, r7, r8, lr}
 800082c:	480a      	ldr	r0, [pc, #40]	@ (8000858 <ST7735_FillRectangle.part.0+0x94>)
 800082e:	2201      	movs	r2, #1
 8000830:	f44f 5180 	mov.w	r1, #4096	@ 0x1000
 8000834:	f000 ba5a 	b.w	8000cec <HAL_GPIO_WritePin>
 8000838:	4638      	mov	r0, r7
 800083a:	f7ff fe47 	bl	80004cc <lcd7735_sendData>
 800083e:	4640      	mov	r0, r8
 8000840:	f7ff fe44 	bl	80004cc <lcd7735_sendData>
 8000844:	3e01      	subs	r6, #1
 8000846:	b2b6      	uxth	r6, r6
 8000848:	2e00      	cmp	r6, #0
 800084a:	d1f5      	bne.n	8000838 <ST7735_FillRectangle.part.0+0x74>
 800084c:	3c01      	subs	r4, #1
 800084e:	b2a4      	uxth	r4, r4
 8000850:	e7e9      	b.n	8000826 <ST7735_FillRectangle.part.0+0x62>
 8000852:	462e      	mov	r6, r5
 8000854:	e7f8      	b.n	8000848 <ST7735_FillRectangle.part.0+0x84>
 8000856:	bf00      	nop
 8000858:	48000400 	.word	0x48000400

0800085c <ST7735_FillScreen>:
 800085c:	b507      	push	{r0, r1, r2, lr}
 800085e:	2100      	movs	r1, #0
 8000860:	9000      	str	r0, [sp, #0]
 8000862:	2380      	movs	r3, #128	@ 0x80
 8000864:	22a0      	movs	r2, #160	@ 0xa0
 8000866:	4608      	mov	r0, r1
 8000868:	f7ff ffac 	bl	80007c4 <ST7735_FillRectangle.part.0>
 800086c:	b003      	add	sp, #12
 800086e:	f85d fb04 	ldr.w	pc, [sp], #4
	...

08000874 <HAL_MspInit>:
 8000874:	4b0b      	ldr	r3, [pc, #44]	@ (80008a4 <HAL_MspInit+0x30>)
 8000876:	6e1a      	ldr	r2, [r3, #96]	@ 0x60
 8000878:	f042 0201 	orr.w	r2, r2, #1
 800087c:	b082      	sub	sp, #8
 800087e:	661a      	str	r2, [r3, #96]	@ 0x60
 8000880:	6e1a      	ldr	r2, [r3, #96]	@ 0x60
 8000882:	f002 0201 	and.w	r2, r2, #1
 8000886:	9200      	str	r2, [sp, #0]
 8000888:	9a00      	ldr	r2, [sp, #0]
 800088a:	6d9a      	ldr	r2, [r3, #88]	@ 0x58
 800088c:	f042 5280 	orr.w	r2, r2, #268435456	@ 0x10000000
 8000890:	659a      	str	r2, [r3, #88]	@ 0x58
 8000892:	6d9b      	ldr	r3, [r3, #88]	@ 0x58
 8000894:	f003 5380 	and.w	r3, r3, #268435456	@ 0x10000000
 8000898:	9301      	str	r3, [sp, #4]
 800089a:	9b01      	ldr	r3, [sp, #4]
 800089c:	b002      	add	sp, #8
 800089e:	f000 ba83 	b.w	8000da8 <HAL_PWREx_DisableUCPDDeadBattery>
 80008a2:	bf00      	nop
 80008a4:	40021000 	.word	0x40021000

080008a8 <HAL_SPI_MspInit>:
 80008a8:	b510      	push	{r4, lr}
 80008aa:	4604      	mov	r4, r0
 80008ac:	b088      	sub	sp, #32
 80008ae:	2214      	movs	r2, #20
 80008b0:	2100      	movs	r1, #0
 80008b2:	a803      	add	r0, sp, #12
 80008b4:	f001 fb32 	bl	8001f1c <memset>
 80008b8:	6822      	ldr	r2, [r4, #0]
 80008ba:	4b12      	ldr	r3, [pc, #72]	@ (8000904 <HAL_SPI_MspInit+0x5c>)
 80008bc:	429a      	cmp	r2, r3
 80008be:	d11e      	bne.n	80008fe <HAL_SPI_MspInit+0x56>
 80008c0:	f503 33ec 	add.w	r3, r3, #120832	@ 0x1d800
 80008c4:	4810      	ldr	r0, [pc, #64]	@ (8000908 <HAL_SPI_MspInit+0x60>)
 80008c6:	6d9a      	ldr	r2, [r3, #88]	@ 0x58
 80008c8:	f442 4280 	orr.w	r2, r2, #16384	@ 0x4000
 80008cc:	659a      	str	r2, [r3, #88]	@ 0x58
 80008ce:	6d9a      	ldr	r2, [r3, #88]	@ 0x58
 80008d0:	f402 4280 	and.w	r2, r2, #16384	@ 0x4000
 80008d4:	9201      	str	r2, [sp, #4]
 80008d6:	9a01      	ldr	r2, [sp, #4]
 80008d8:	6cda      	ldr	r2, [r3, #76]	@ 0x4c
 80008da:	f042 0202 	orr.w	r2, r2, #2
 80008de:	64da      	str	r2, [r3, #76]	@ 0x4c
 80008e0:	6cdb      	ldr	r3, [r3, #76]	@ 0x4c
 80008e2:	f003 0302 	and.w	r3, r3, #2
 80008e6:	9302      	str	r3, [sp, #8]
 80008e8:	9b02      	ldr	r3, [sp, #8]
 80008ea:	f44f 4220 	mov.w	r2, #40960	@ 0xa000
 80008ee:	2302      	movs	r3, #2
 80008f0:	e9cd 2303 	strd	r2, r3, [sp, #12]
 80008f4:	a903      	add	r1, sp, #12
 80008f6:	2305      	movs	r3, #5
 80008f8:	9307      	str	r3, [sp, #28]
 80008fa:	f000 f929 	bl	8000b50 <HAL_GPIO_Init>
 80008fe:	b008      	add	sp, #32
 8000900:	bd10      	pop	{r4, pc}
 8000902:	bf00      	nop
 8000904:	40003800 	.word	0x40003800
 8000908:	48000400 	.word	0x48000400

0800090c <HAL_TIM_Base_MspInit>:
 800090c:	6802      	ldr	r2, [r0, #0]
 800090e:	4b08      	ldr	r3, [pc, #32]	@ (8000930 <HAL_TIM_Base_MspInit+0x24>)
 8000910:	429a      	cmp	r2, r3
 8000912:	b082      	sub	sp, #8
 8000914:	d10a      	bne.n	800092c <HAL_TIM_Base_MspInit+0x20>
 8000916:	f503 4348 	add.w	r3, r3, #51200	@ 0xc800
 800091a:	6e1a      	ldr	r2, [r3, #96]	@ 0x60
 800091c:	f442 2280 	orr.w	r2, r2, #262144	@ 0x40000
 8000920:	661a      	str	r2, [r3, #96]	@ 0x60
 8000922:	6e1b      	ldr	r3, [r3, #96]	@ 0x60
 8000924:	f403 2380 	and.w	r3, r3, #262144	@ 0x40000
 8000928:	9301      	str	r3, [sp, #4]
 800092a:	9b01      	ldr	r3, [sp, #4]
 800092c:	b002      	add	sp, #8
 800092e:	4770      	bx	lr
 8000930:	40014800 	.word	0x40014800

08000934 <HAL_TIM_MspPostInit>:
 8000934:	b510      	push	{r4, lr}
 8000936:	4604      	mov	r4, r0
 8000938:	b086      	sub	sp, #24
 800093a:	2214      	movs	r2, #20
 800093c:	2100      	movs	r1, #0
 800093e:	a801      	add	r0, sp, #4
 8000940:	f001 faec 	bl	8001f1c <memset>
 8000944:	6822      	ldr	r2, [r4, #0]
 8000946:	4b0d      	ldr	r3, [pc, #52]	@ (800097c <HAL_TIM_MspPostInit+0x48>)
 8000948:	429a      	cmp	r2, r3
 800094a:	d115      	bne.n	8000978 <HAL_TIM_MspPostInit+0x44>
 800094c:	f503 4348 	add.w	r3, r3, #51200	@ 0xc800
 8000950:	480b      	ldr	r0, [pc, #44]	@ (8000980 <HAL_TIM_MspPostInit+0x4c>)
 8000952:	6cda      	ldr	r2, [r3, #76]	@ 0x4c
 8000954:	f042 0202 	orr.w	r2, r2, #2
 8000958:	64da      	str	r2, [r3, #76]	@ 0x4c
 800095a:	6cdb      	ldr	r3, [r3, #76]	@ 0x4c
 800095c:	f003 0302 	and.w	r3, r3, #2
 8000960:	9300      	str	r3, [sp, #0]
 8000962:	9b00      	ldr	r3, [sp, #0]
 8000964:	f44f 7200 	mov.w	r2, #512	@ 0x200
 8000968:	2302      	movs	r3, #2
 800096a:	e9cd 2301 	strd	r2, r3, [sp, #4]
 800096e:	a901      	add	r1, sp, #4
 8000970:	2301      	movs	r3, #1
 8000972:	9305      	str	r3, [sp, #20]
 8000974:	f000 f8ec 	bl	8000b50 <HAL_GPIO_Init>
 8000978:	b006      	add	sp, #24
 800097a:	bd10      	pop	{r4, pc}
 800097c:	40014800 	.word	0x40014800
 8000980:	48000400 	.word	0x48000400

08000984 <NMI_Handler>:
 8000984:	e7fe      	b.n	8000984 <NMI_Handler>

08000986 <HardFault_Handler>:
 8000986:	e7fe      	b.n	8000986 <HardFault_Handler>

08000988 <MemManage_Handler>:
 8000988:	e7fe      	b.n	8000988 <MemManage_Handler>

0800098a <BusFault_Handler>:
 800098a:	e7fe      	b.n	800098a <BusFault_Handler>

0800098c <UsageFault_Handler>:
 800098c:	e7fe      	b.n	800098c <UsageFault_Handler>

0800098e <SVC_Handler>:
 800098e:	4770      	bx	lr

08000990 <DebugMon_Handler>:
 8000990:	4770      	bx	lr

08000992 <PendSV_Handler>:
 8000992:	4770      	bx	lr

08000994 <SysTick_Handler>:
 8000994:	f7ff bd68 	b.w	8000468 <HAL_IncTick>

08000998 <SystemInit>:
 8000998:	4a03      	ldr	r2, [pc, #12]	@ (80009a8 <SystemInit+0x10>)
 800099a:	f8d2 3088 	ldr.w	r3, [r2, #136]	@ 0x88
 800099e:	f443 0370 	orr.w	r3, r3, #15728640	@ 0xf00000
 80009a2:	f8c2 3088 	str.w	r3, [r2, #136]	@ 0x88
 80009a6:	4770      	bx	lr
 80009a8:	e000ed00 	.word	0xe000ed00

080009ac <Reset_Handler>:
 80009ac:	480d      	ldr	r0, [pc, #52]	@ (80009e4 <LoopForever+0x2>)
 80009ae:	4685      	mov	sp, r0
 80009b0:	f7ff fff2 	bl	8000998 <SystemInit>
 80009b4:	480c      	ldr	r0, [pc, #48]	@ (80009e8 <LoopForever+0x6>)
 80009b6:	490d      	ldr	r1, [pc, #52]	@ (80009ec <LoopForever+0xa>)
 80009b8:	4a0d      	ldr	r2, [pc, #52]	@ (80009f0 <LoopForever+0xe>)
 80009ba:	2300      	movs	r3, #0
 80009bc:	e002      	b.n	80009c4 <LoopCopyDataInit>

080009be <CopyDataInit>:
 80009be:	58d4      	ldr	r4, [r2, r3]
 80009c0:	50c4      	str	r4, [r0, r3]
 80009c2:	3304      	adds	r3, #4

080009c4 <LoopCopyDataInit>:
 80009c4:	18c4      	adds	r4, r0, r3
 80009c6:	428c      	cmp	r4, r1
 80009c8:	d3f9      	bcc.n	80009be <CopyDataInit>
 80009ca:	4a0a      	ldr	r2, [pc, #40]	@ (80009f4 <LoopForever+0x12>)
 80009cc:	4c0a      	ldr	r4, [pc, #40]	@ (80009f8 <LoopForever+0x16>)
 80009ce:	2300      	movs	r3, #0
 80009d0:	e001      	b.n	80009d6 <LoopFillZerobss>

080009d2 <FillZerobss>:
 80009d2:	6013      	str	r3, [r2, #0]
 80009d4:	3204      	adds	r2, #4

080009d6 <LoopFillZerobss>:
 80009d6:	42a2      	cmp	r2, r4
 80009d8:	d3fb      	bcc.n	80009d2 <FillZerobss>
 80009da:	f001 faa7 	bl	8001f2c <__libc_init_array>
 80009de:	f7ff fc4f 	bl	8000280 <main>

080009e2 <LoopForever>:
 80009e2:	e7fe      	b.n	80009e2 <LoopForever>
 80009e4:	20008000 	.word	0x20008000
 80009e8:	20000000 	.word	0x20000000
 80009ec:	2000000c 	.word	0x2000000c
 80009f0:	08001fa4 	.word	0x08001fa4
 80009f4:	2000000c 	.word	0x2000000c
 80009f8:	200000e0 	.word	0x200000e0

080009fc <ADC1_2_IRQHandler>:
 80009fc:	e7fe      	b.n	80009fc <ADC1_2_IRQHandler>
	...

08000a00 <HAL_InitTick>:
 8000a00:	b538      	push	{r3, r4, r5, lr}
 8000a02:	4b0f      	ldr	r3, [pc, #60]	@ (8000a40 <HAL_InitTick+0x40>)
 8000a04:	681a      	ldr	r2, [r3, #0]
 8000a06:	4605      	mov	r5, r0
 8000a08:	b90a      	cbnz	r2, 8000a0e <HAL_InitTick+0xe>
 8000a0a:	2001      	movs	r0, #1
 8000a0c:	bd38      	pop	{r3, r4, r5, pc}
 8000a0e:	f44f 737a 	mov.w	r3, #1000	@ 0x3e8
 8000a12:	fbb3 f3f2 	udiv	r3, r3, r2
 8000a16:	4a0b      	ldr	r2, [pc, #44]	@ (8000a44 <HAL_InitTick+0x44>)
 8000a18:	6810      	ldr	r0, [r2, #0]
 8000a1a:	fbb0 f0f3 	udiv	r0, r0, r3
 8000a1e:	f000 f883 	bl	8000b28 <HAL_SYSTICK_Config>
 8000a22:	4604      	mov	r4, r0
 8000a24:	2800      	cmp	r0, #0
 8000a26:	d1f0      	bne.n	8000a0a <HAL_InitTick+0xa>
 8000a28:	2d0f      	cmp	r5, #15
 8000a2a:	d8ee      	bhi.n	8000a0a <HAL_InitTick+0xa>
 8000a2c:	4602      	mov	r2, r0
 8000a2e:	4629      	mov	r1, r5
 8000a30:	f04f 30ff 	mov.w	r0, #4294967295
 8000a34:	f000 f846 	bl	8000ac4 <HAL_NVIC_SetPriority>
 8000a38:	4b03      	ldr	r3, [pc, #12]	@ (8000a48 <HAL_InitTick+0x48>)
 8000a3a:	4620      	mov	r0, r4
 8000a3c:	601d      	str	r5, [r3, #0]
 8000a3e:	e7e5      	b.n	8000a0c <HAL_InitTick+0xc>
 8000a40:	20000004 	.word	0x20000004
 8000a44:	20000000 	.word	0x20000000
 8000a48:	20000008 	.word	0x20000008

08000a4c <HAL_Init>:
 8000a4c:	b510      	push	{r4, lr}
 8000a4e:	2003      	movs	r0, #3
 8000a50:	f000 f826 	bl	8000aa0 <HAL_NVIC_SetPriorityGrouping>
 8000a54:	200f      	movs	r0, #15
 8000a56:	f7ff ffd3 	bl	8000a00 <HAL_InitTick>
 8000a5a:	4604      	mov	r4, r0
 8000a5c:	b918      	cbnz	r0, 8000a66 <HAL_Init+0x1a>
 8000a5e:	f7ff ff09 	bl	8000874 <HAL_MspInit>
 8000a62:	4620      	mov	r0, r4
 8000a64:	bd10      	pop	{r4, pc}
 8000a66:	2401      	movs	r4, #1
 8000a68:	e7fb      	b.n	8000a62 <HAL_Init+0x16>
	...

08000a6c <HAL_GetTick>:
 8000a6c:	4b01      	ldr	r3, [pc, #4]	@ (8000a74 <HAL_GetTick+0x8>)
 8000a6e:	6818      	ldr	r0, [r3, #0]
 8000a70:	4770      	bx	lr
 8000a72:	bf00      	nop
 8000a74:	200000dc 	.word	0x200000dc

08000a78 <HAL_Delay>:
 8000a78:	b538      	push	{r3, r4, r5, lr}
 8000a7a:	4604      	mov	r4, r0
 8000a7c:	f7ff fff6 	bl	8000a6c <HAL_GetTick>
 8000a80:	1c63      	adds	r3, r4, #1
 8000a82:	bf1c      	itt	ne
 8000a84:	4b05      	ldrne	r3, [pc, #20]	@ (8000a9c <HAL_Delay+0x24>)
 8000a86:	681b      	ldrne	r3, [r3, #0]
 8000a88:	4605      	mov	r5, r0
 8000a8a:	bf18      	it	ne
 8000a8c:	18e4      	addne	r4, r4, r3
 8000a8e:	f7ff ffed 	bl	8000a6c <HAL_GetTick>
 8000a92:	1b43      	subs	r3, r0, r5
 8000a94:	42a3      	cmp	r3, r4
 8000a96:	d3fa      	bcc.n	8000a8e <HAL_Delay+0x16>
 8000a98:	bd38      	pop	{r3, r4, r5, pc}
 8000a9a:	bf00      	nop
 8000a9c:	20000004 	.word	0x20000004

08000aa0 <HAL_NVIC_SetPriorityGrouping>:
 8000aa0:	4907      	ldr	r1, [pc, #28]	@ (8000ac0 <HAL_NVIC_SetPriorityGrouping+0x20>)
 8000aa2:	68ca      	ldr	r2, [r1, #12]
 8000aa4:	f422 62e0 	bic.w	r2, r2, #1792	@ 0x700
 8000aa8:	0203      	lsls	r3, r0, #8
 8000aaa:	0412      	lsls	r2, r2, #16
 8000aac:	f403 63e0 	and.w	r3, r3, #1792	@ 0x700
 8000ab0:	0c12      	lsrs	r2, r2, #16
 8000ab2:	4313      	orrs	r3, r2
 8000ab4:	f043 63bf 	orr.w	r3, r3, #100139008	@ 0x5f80000
 8000ab8:	f443 3300 	orr.w	r3, r3, #131072	@ 0x20000
 8000abc:	60cb      	str	r3, [r1, #12]
 8000abe:	4770      	bx	lr
 8000ac0:	e000ed00 	.word	0xe000ed00

08000ac4 <HAL_NVIC_SetPriority>:
 8000ac4:	4b16      	ldr	r3, [pc, #88]	@ (8000b20 <HAL_NVIC_SetPriority+0x5c>)
 8000ac6:	b530      	push	{r4, r5, lr}
 8000ac8:	68dc      	ldr	r4, [r3, #12]
 8000aca:	f3c4 2402 	ubfx	r4, r4, #8, #3
 8000ace:	f1c4 0307 	rsb	r3, r4, #7
 8000ad2:	1d25      	adds	r5, r4, #4
 8000ad4:	2b04      	cmp	r3, #4
 8000ad6:	bf28      	it	cs
 8000ad8:	2304      	movcs	r3, #4
 8000ada:	2d06      	cmp	r5, #6
 8000adc:	f04f 35ff 	mov.w	r5, #4294967295
 8000ae0:	bf8c      	ite	hi
 8000ae2:	3c03      	subhi	r4, #3
 8000ae4:	2400      	movls	r4, #0
 8000ae6:	fa05 f303 	lsl.w	r3, r5, r3
 8000aea:	ea21 0303 	bic.w	r3, r1, r3
 8000aee:	40a5      	lsls	r5, r4
 8000af0:	ea22 0205 	bic.w	r2, r2, r5
 8000af4:	40a3      	lsls	r3, r4
 8000af6:	2800      	cmp	r0, #0
 8000af8:	ea43 0302 	orr.w	r3, r3, r2
 8000afc:	bfac      	ite	ge
 8000afe:	f100 4060 	addge.w	r0, r0, #3758096384	@ 0xe0000000
 8000b02:	4a08      	ldrlt	r2, [pc, #32]	@ (8000b24 <HAL_NVIC_SetPriority+0x60>)
 8000b04:	ea4f 1303 	mov.w	r3, r3, lsl #4
 8000b08:	bfb8      	it	lt
 8000b0a:	f000 000f 	andlt.w	r0, r0, #15
 8000b0e:	b2db      	uxtb	r3, r3
 8000b10:	bfaa      	itet	ge
 8000b12:	f500 4061 	addge.w	r0, r0, #57600	@ 0xe100
 8000b16:	5413      	strblt	r3, [r2, r0]
 8000b18:	f880 3300 	strbge.w	r3, [r0, #768]	@ 0x300
 8000b1c:	bd30      	pop	{r4, r5, pc}
 8000b1e:	bf00      	nop
 8000b20:	e000ed00 	.word	0xe000ed00
 8000b24:	e000ed14 	.word	0xe000ed14

08000b28 <HAL_SYSTICK_Config>:
 8000b28:	3801      	subs	r0, #1
 8000b2a:	f1b0 7f80 	cmp.w	r0, #16777216	@ 0x1000000
 8000b2e:	d20b      	bcs.n	8000b48 <HAL_SYSTICK_Config+0x20>
 8000b30:	f04f 23e0 	mov.w	r3, #3758153728	@ 0xe000e000
 8000b34:	4a05      	ldr	r2, [pc, #20]	@ (8000b4c <HAL_SYSTICK_Config+0x24>)
 8000b36:	6158      	str	r0, [r3, #20]
 8000b38:	21f0      	movs	r1, #240	@ 0xf0
 8000b3a:	f882 1023 	strb.w	r1, [r2, #35]	@ 0x23
 8000b3e:	2000      	movs	r0, #0
 8000b40:	2207      	movs	r2, #7
 8000b42:	6198      	str	r0, [r3, #24]
 8000b44:	611a      	str	r2, [r3, #16]
 8000b46:	4770      	bx	lr
 8000b48:	2001      	movs	r0, #1
 8000b4a:	4770      	bx	lr
 8000b4c:	e000ed00 	.word	0xe000ed00

08000b50 <HAL_GPIO_Init>:
 8000b50:	e92d 4ff7 	stmdb	sp!, {r0, r1, r2, r4, r5, r6, r7, r8, r9, sl, fp, lr}
 8000b54:	f8df 9190 	ldr.w	r9, [pc, #400]	@ 8000ce8 <HAL_GPIO_Init+0x198>
 8000b58:	4c61      	ldr	r4, [pc, #388]	@ (8000ce0 <HAL_GPIO_Init+0x190>)
 8000b5a:	2300      	movs	r3, #0
 8000b5c:	680a      	ldr	r2, [r1, #0]
 8000b5e:	fa32 f503 	lsrs.w	r5, r2, r3
 8000b62:	d102      	bne.n	8000b6a <HAL_GPIO_Init+0x1a>
 8000b64:	b003      	add	sp, #12
 8000b66:	e8bd 8ff0 	ldmia.w	sp!, {r4, r5, r6, r7, r8, r9, sl, fp, pc}
 8000b6a:	2501      	movs	r5, #1
 8000b6c:	fa05 fa03 	lsl.w	sl, r5, r3
 8000b70:	ea1a 0202 	ands.w	r2, sl, r2
 8000b74:	f000 80a8 	beq.w	8000cc8 <HAL_GPIO_Init+0x178>
 8000b78:	684e      	ldr	r6, [r1, #4]
 8000b7a:	f8d1 c008 	ldr.w	ip, [r1, #8]
 8000b7e:	2703      	movs	r7, #3
 8000b80:	f006 0503 	and.w	r5, r6, #3
 8000b84:	ea4f 0843 	mov.w	r8, r3, lsl #1
 8000b88:	fa07 fe08 	lsl.w	lr, r7, r8
 8000b8c:	1e6f      	subs	r7, r5, #1
 8000b8e:	2f01      	cmp	r7, #1
 8000b90:	ea6f 0e0e 	mvn.w	lr, lr
 8000b94:	d833      	bhi.n	8000bfe <HAL_GPIO_Init+0xae>
 8000b96:	6887      	ldr	r7, [r0, #8]
 8000b98:	ea07 0b0e 	and.w	fp, r7, lr
 8000b9c:	68cf      	ldr	r7, [r1, #12]
 8000b9e:	fa07 f708 	lsl.w	r7, r7, r8
 8000ba2:	ea47 070b 	orr.w	r7, r7, fp
 8000ba6:	6087      	str	r7, [r0, #8]
 8000ba8:	6847      	ldr	r7, [r0, #4]
 8000baa:	ea27 0a0a 	bic.w	sl, r7, sl
 8000bae:	f3c6 1700 	ubfx	r7, r6, #4, #1
 8000bb2:	409f      	lsls	r7, r3
 8000bb4:	ea47 070a 	orr.w	r7, r7, sl
 8000bb8:	6047      	str	r7, [r0, #4]
 8000bba:	68c7      	ldr	r7, [r0, #12]
 8000bbc:	fa0c fc08 	lsl.w	ip, ip, r8
 8000bc0:	ea07 070e 	and.w	r7, r7, lr
 8000bc4:	ea4c 0707 	orr.w	r7, ip, r7
 8000bc8:	2d02      	cmp	r5, #2
 8000bca:	60c7      	str	r7, [r0, #12]
 8000bcc:	d11c      	bne.n	8000c08 <HAL_GPIO_Init+0xb8>
 8000bce:	ea4f 0cd3 	mov.w	ip, r3, lsr #3
 8000bd2:	eb00 0c8c 	add.w	ip, r0, ip, lsl #2
 8000bd6:	f003 0a07 	and.w	sl, r3, #7
 8000bda:	f8dc 7020 	ldr.w	r7, [ip, #32]
 8000bde:	ea4f 0a8a 	mov.w	sl, sl, lsl #2
 8000be2:	f04f 0b0f 	mov.w	fp, #15
 8000be6:	fa0b fb0a 	lsl.w	fp, fp, sl
 8000bea:	ea27 0b0b 	bic.w	fp, r7, fp
 8000bee:	690f      	ldr	r7, [r1, #16]
 8000bf0:	fa07 f70a 	lsl.w	r7, r7, sl
 8000bf4:	ea47 070b 	orr.w	r7, r7, fp
 8000bf8:	f8cc 7020 	str.w	r7, [ip, #32]
 8000bfc:	e004      	b.n	8000c08 <HAL_GPIO_Init+0xb8>
 8000bfe:	2d03      	cmp	r5, #3
 8000c00:	d1db      	bne.n	8000bba <HAL_GPIO_Init+0x6a>
 8000c02:	f1bc 0f01 	cmp.w	ip, #1
 8000c06:	d1d8      	bne.n	8000bba <HAL_GPIO_Init+0x6a>
 8000c08:	6807      	ldr	r7, [r0, #0]
 8000c0a:	fa05 f508 	lsl.w	r5, r5, r8
 8000c0e:	ea07 070e 	and.w	r7, r7, lr
 8000c12:	433d      	orrs	r5, r7
 8000c14:	f416 3f40 	tst.w	r6, #196608	@ 0x30000
 8000c18:	6005      	str	r5, [r0, #0]
 8000c1a:	d055      	beq.n	8000cc8 <HAL_GPIO_Init+0x178>
 8000c1c:	f8d9 5060 	ldr.w	r5, [r9, #96]	@ 0x60
 8000c20:	f045 0501 	orr.w	r5, r5, #1
 8000c24:	f8c9 5060 	str.w	r5, [r9, #96]	@ 0x60
 8000c28:	f8d9 5060 	ldr.w	r5, [r9, #96]	@ 0x60
 8000c2c:	f023 0703 	bic.w	r7, r3, #3
 8000c30:	f107 4780 	add.w	r7, r7, #1073741824	@ 0x40000000
 8000c34:	f005 0501 	and.w	r5, r5, #1
 8000c38:	f507 3780 	add.w	r7, r7, #65536	@ 0x10000
 8000c3c:	9501      	str	r5, [sp, #4]
 8000c3e:	f003 0c03 	and.w	ip, r3, #3
 8000c42:	9d01      	ldr	r5, [sp, #4]
 8000c44:	68bd      	ldr	r5, [r7, #8]
 8000c46:	ea4f 0c8c 	mov.w	ip, ip, lsl #2
 8000c4a:	f04f 0e0f 	mov.w	lr, #15
 8000c4e:	fa0e fe0c 	lsl.w	lr, lr, ip
 8000c52:	f1b0 4f90 	cmp.w	r0, #1207959552	@ 0x48000000
 8000c56:	ea25 0e0e 	bic.w	lr, r5, lr
 8000c5a:	d037      	beq.n	8000ccc <HAL_GPIO_Init+0x17c>
 8000c5c:	4d21      	ldr	r5, [pc, #132]	@ (8000ce4 <HAL_GPIO_Init+0x194>)
 8000c5e:	42a8      	cmp	r0, r5
 8000c60:	d036      	beq.n	8000cd0 <HAL_GPIO_Init+0x180>
 8000c62:	f505 6580 	add.w	r5, r5, #1024	@ 0x400
 8000c66:	42a8      	cmp	r0, r5
 8000c68:	d034      	beq.n	8000cd4 <HAL_GPIO_Init+0x184>
 8000c6a:	f505 6580 	add.w	r5, r5, #1024	@ 0x400
 8000c6e:	42a8      	cmp	r0, r5
 8000c70:	d032      	beq.n	8000cd8 <HAL_GPIO_Init+0x188>
 8000c72:	f505 6580 	add.w	r5, r5, #1024	@ 0x400
 8000c76:	42a8      	cmp	r0, r5
 8000c78:	d030      	beq.n	8000cdc <HAL_GPIO_Init+0x18c>
 8000c7a:	f505 6580 	add.w	r5, r5, #1024	@ 0x400
 8000c7e:	42a8      	cmp	r0, r5
 8000c80:	bf14      	ite	ne
 8000c82:	2506      	movne	r5, #6
 8000c84:	2505      	moveq	r5, #5
 8000c86:	fa05 f50c 	lsl.w	r5, r5, ip
 8000c8a:	ea45 050e 	orr.w	r5, r5, lr
 8000c8e:	60bd      	str	r5, [r7, #8]
 8000c90:	68a5      	ldr	r5, [r4, #8]
 8000c92:	43d7      	mvns	r7, r2
 8000c94:	f416 1f80 	tst.w	r6, #1048576	@ 0x100000
 8000c98:	bf0c      	ite	eq
 8000c9a:	403d      	andeq	r5, r7
 8000c9c:	4315      	orrne	r5, r2
 8000c9e:	60a5      	str	r5, [r4, #8]
 8000ca0:	68e5      	ldr	r5, [r4, #12]
 8000ca2:	f416 1f00 	tst.w	r6, #2097152	@ 0x200000
 8000ca6:	bf0c      	ite	eq
 8000ca8:	403d      	andeq	r5, r7
 8000caa:	4315      	orrne	r5, r2
 8000cac:	60e5      	str	r5, [r4, #12]
 8000cae:	6865      	ldr	r5, [r4, #4]
 8000cb0:	f416 3f00 	tst.w	r6, #131072	@ 0x20000
 8000cb4:	bf0c      	ite	eq
 8000cb6:	403d      	andeq	r5, r7
 8000cb8:	4315      	orrne	r5, r2
 8000cba:	6065      	str	r5, [r4, #4]
 8000cbc:	6825      	ldr	r5, [r4, #0]
 8000cbe:	03f6      	lsls	r6, r6, #15
 8000cc0:	bf54      	ite	pl
 8000cc2:	403d      	andpl	r5, r7
 8000cc4:	4315      	orrmi	r5, r2
 8000cc6:	6025      	str	r5, [r4, #0]
 8000cc8:	3301      	adds	r3, #1
 8000cca:	e747      	b.n	8000b5c <HAL_GPIO_Init+0xc>
 8000ccc:	2500      	movs	r5, #0
 8000cce:	e7da      	b.n	8000c86 <HAL_GPIO_Init+0x136>
 8000cd0:	2501      	movs	r5, #1
 8000cd2:	e7d8      	b.n	8000c86 <HAL_GPIO_Init+0x136>
 8000cd4:	2502      	movs	r5, #2
 8000cd6:	e7d6      	b.n	8000c86 <HAL_GPIO_Init+0x136>
 8000cd8:	2503      	movs	r5, #3
 8000cda:	e7d4      	b.n	8000c86 <HAL_GPIO_Init+0x136>
 8000cdc:	2504      	movs	r5, #4
 8000cde:	e7d2      	b.n	8000c86 <HAL_GPIO_Init+0x136>
 8000ce0:	40010400 	.word	0x40010400
 8000ce4:	48000400 	.word	0x48000400
 8000ce8:	40021000 	.word	0x40021000

08000cec <HAL_GPIO_WritePin>:
 8000cec:	b10a      	cbz	r2, 8000cf2 <HAL_GPIO_WritePin+0x6>
 8000cee:	6181      	str	r1, [r0, #24]
 8000cf0:	4770      	bx	lr
 8000cf2:	6281      	str	r1, [r0, #40]	@ 0x28
 8000cf4:	4770      	bx	lr
	...

08000cf8 <HAL_PWREx_ControlVoltageScaling>:
 8000cf8:	4b28      	ldr	r3, [pc, #160]	@ (8000d9c <HAL_PWREx_ControlVoltageScaling+0xa4>)
 8000cfa:	681a      	ldr	r2, [r3, #0]
 8000cfc:	bb18      	cbnz	r0, 8000d46 <HAL_PWREx_ControlVoltageScaling+0x4e>
 8000cfe:	f402 62c0 	and.w	r2, r2, #1536	@ 0x600
 8000d02:	f5b2 6f80 	cmp.w	r2, #1024	@ 0x400
 8000d06:	f8d3 2080 	ldr.w	r2, [r3, #128]	@ 0x80
 8000d0a:	f422 7280 	bic.w	r2, r2, #256	@ 0x100
 8000d0e:	f8c3 2080 	str.w	r2, [r3, #128]	@ 0x80
 8000d12:	d140      	bne.n	8000d96 <HAL_PWREx_ControlVoltageScaling+0x9e>
 8000d14:	681a      	ldr	r2, [r3, #0]
 8000d16:	f422 62c0 	bic.w	r2, r2, #1536	@ 0x600
 8000d1a:	f442 7200 	orr.w	r2, r2, #512	@ 0x200
 8000d1e:	601a      	str	r2, [r3, #0]
 8000d20:	4a1f      	ldr	r2, [pc, #124]	@ (8000da0 <HAL_PWREx_ControlVoltageScaling+0xa8>)
 8000d22:	6812      	ldr	r2, [r2, #0]
 8000d24:	2132      	movs	r1, #50	@ 0x32
 8000d26:	434a      	muls	r2, r1
 8000d28:	491e      	ldr	r1, [pc, #120]	@ (8000da4 <HAL_PWREx_ControlVoltageScaling+0xac>)
 8000d2a:	fbb2 f2f1 	udiv	r2, r2, r1
 8000d2e:	3201      	adds	r2, #1
 8000d30:	6959      	ldr	r1, [r3, #20]
 8000d32:	0549      	lsls	r1, r1, #21
 8000d34:	d500      	bpl.n	8000d38 <HAL_PWREx_ControlVoltageScaling+0x40>
 8000d36:	b922      	cbnz	r2, 8000d42 <HAL_PWREx_ControlVoltageScaling+0x4a>
 8000d38:	695b      	ldr	r3, [r3, #20]
 8000d3a:	0558      	lsls	r0, r3, #21
 8000d3c:	d52b      	bpl.n	8000d96 <HAL_PWREx_ControlVoltageScaling+0x9e>
 8000d3e:	2003      	movs	r0, #3
 8000d40:	4770      	bx	lr
 8000d42:	3a01      	subs	r2, #1
 8000d44:	e7f4      	b.n	8000d30 <HAL_PWREx_ControlVoltageScaling+0x38>
 8000d46:	f5b0 7f00 	cmp.w	r0, #512	@ 0x200
 8000d4a:	d11f      	bne.n	8000d8c <HAL_PWREx_ControlVoltageScaling+0x94>
 8000d4c:	f402 62c0 	and.w	r2, r2, #1536	@ 0x600
 8000d50:	f5b2 6f80 	cmp.w	r2, #1024	@ 0x400
 8000d54:	f8d3 2080 	ldr.w	r2, [r3, #128]	@ 0x80
 8000d58:	f442 7280 	orr.w	r2, r2, #256	@ 0x100
 8000d5c:	f8c3 2080 	str.w	r2, [r3, #128]	@ 0x80
 8000d60:	d119      	bne.n	8000d96 <HAL_PWREx_ControlVoltageScaling+0x9e>
 8000d62:	681a      	ldr	r2, [r3, #0]
 8000d64:	f422 62c0 	bic.w	r2, r2, #1536	@ 0x600
 8000d68:	f442 7200 	orr.w	r2, r2, #512	@ 0x200
 8000d6c:	601a      	str	r2, [r3, #0]
 8000d6e:	4a0c      	ldr	r2, [pc, #48]	@ (8000da0 <HAL_PWREx_ControlVoltageScaling+0xa8>)
 8000d70:	6812      	ldr	r2, [r2, #0]
 8000d72:	2132      	movs	r1, #50	@ 0x32
 8000d74:	434a      	muls	r2, r1
 8000d76:	490b      	ldr	r1, [pc, #44]	@ (8000da4 <HAL_PWREx_ControlVoltageScaling+0xac>)
 8000d78:	fbb2 f2f1 	udiv	r2, r2, r1
 8000d7c:	3201      	adds	r2, #1
 8000d7e:	6959      	ldr	r1, [r3, #20]
 8000d80:	0549      	lsls	r1, r1, #21
 8000d82:	d5d9      	bpl.n	8000d38 <HAL_PWREx_ControlVoltageScaling+0x40>
 8000d84:	2a00      	cmp	r2, #0
 8000d86:	d0d7      	beq.n	8000d38 <HAL_PWREx_ControlVoltageScaling+0x40>
 8000d88:	3a01      	subs	r2, #1
 8000d8a:	e7f8      	b.n	8000d7e <HAL_PWREx_ControlVoltageScaling+0x86>
 8000d8c:	f422 62c0 	bic.w	r2, r2, #1536	@ 0x600
 8000d90:	f442 6280 	orr.w	r2, r2, #1024	@ 0x400
 8000d94:	601a      	str	r2, [r3, #0]
 8000d96:	2000      	movs	r0, #0
 8000d98:	4770      	bx	lr
 8000d9a:	bf00      	nop
 8000d9c:	40007000 	.word	0x40007000
 8000da0:	20000000 	.word	0x20000000
 8000da4:	000f4240 	.word	0x000f4240

08000da8 <HAL_PWREx_DisableUCPDDeadBattery>:
 8000da8:	4a02      	ldr	r2, [pc, #8]	@ (8000db4 <HAL_PWREx_DisableUCPDDeadBattery+0xc>)
 8000daa:	6893      	ldr	r3, [r2, #8]
 8000dac:	f443 4380 	orr.w	r3, r3, #16384	@ 0x4000
 8000db0:	6093      	str	r3, [r2, #8]
 8000db2:	4770      	bx	lr
 8000db4:	40007000 	.word	0x40007000

08000db8 <HAL_RCC_OscConfig>:
 8000db8:	e92d 41f3 	stmdb	sp!, {r0, r1, r4, r5, r6, r7, r8, lr}
 8000dbc:	4604      	mov	r4, r0
 8000dbe:	b918      	cbnz	r0, 8000dc8 <HAL_RCC_OscConfig+0x10>
 8000dc0:	2001      	movs	r0, #1
 8000dc2:	b002      	add	sp, #8
 8000dc4:	e8bd 81f0 	ldmia.w	sp!, {r4, r5, r6, r7, r8, pc}
 8000dc8:	6803      	ldr	r3, [r0, #0]
 8000dca:	07d9      	lsls	r1, r3, #31
 8000dcc:	d414      	bmi.n	8000df8 <HAL_RCC_OscConfig+0x40>
 8000dce:	6823      	ldr	r3, [r4, #0]
 8000dd0:	079a      	lsls	r2, r3, #30
 8000dd2:	d458      	bmi.n	8000e86 <HAL_RCC_OscConfig+0xce>
 8000dd4:	6823      	ldr	r3, [r4, #0]
 8000dd6:	0719      	lsls	r1, r3, #28
 8000dd8:	f100 80a1 	bmi.w	8000f1e <HAL_RCC_OscConfig+0x166>
 8000ddc:	6823      	ldr	r3, [r4, #0]
 8000dde:	075a      	lsls	r2, r3, #29
 8000de0:	f100 80c8 	bmi.w	8000f74 <HAL_RCC_OscConfig+0x1bc>
 8000de4:	6823      	ldr	r3, [r4, #0]
 8000de6:	069a      	lsls	r2, r3, #26
 8000de8:	f100 812f 	bmi.w	800104a <HAL_RCC_OscConfig+0x292>
 8000dec:	69e3      	ldr	r3, [r4, #28]
 8000dee:	2b00      	cmp	r3, #0
 8000df0:	f040 815c 	bne.w	80010ac <HAL_RCC_OscConfig+0x2f4>
 8000df4:	2000      	movs	r0, #0
 8000df6:	e7e4      	b.n	8000dc2 <HAL_RCC_OscConfig+0xa>
 8000df8:	4d9f      	ldr	r5, [pc, #636]	@ (8001078 <HAL_RCC_OscConfig+0x2c0>)
 8000dfa:	68ab      	ldr	r3, [r5, #8]
 8000dfc:	68ea      	ldr	r2, [r5, #12]
 8000dfe:	f003 030c 	and.w	r3, r3, #12
 8000e02:	2b0c      	cmp	r3, #12
 8000e04:	d10a      	bne.n	8000e1c <HAL_RCC_OscConfig+0x64>
 8000e06:	f002 0303 	and.w	r3, r2, #3
 8000e0a:	2b03      	cmp	r3, #3
 8000e0c:	d108      	bne.n	8000e20 <HAL_RCC_OscConfig+0x68>
 8000e0e:	682b      	ldr	r3, [r5, #0]
 8000e10:	039b      	lsls	r3, r3, #14
 8000e12:	d5dc      	bpl.n	8000dce <HAL_RCC_OscConfig+0x16>
 8000e14:	6863      	ldr	r3, [r4, #4]
 8000e16:	2b00      	cmp	r3, #0
 8000e18:	d1d9      	bne.n	8000dce <HAL_RCC_OscConfig+0x16>
 8000e1a:	e7d1      	b.n	8000dc0 <HAL_RCC_OscConfig+0x8>
 8000e1c:	2b08      	cmp	r3, #8
 8000e1e:	e7f5      	b.n	8000e0c <HAL_RCC_OscConfig+0x54>
 8000e20:	6863      	ldr	r3, [r4, #4]
 8000e22:	f5b3 3f80 	cmp.w	r3, #65536	@ 0x10000
 8000e26:	d110      	bne.n	8000e4a <HAL_RCC_OscConfig+0x92>
 8000e28:	682b      	ldr	r3, [r5, #0]
 8000e2a:	f443 3380 	orr.w	r3, r3, #65536	@ 0x10000
 8000e2e:	602b      	str	r3, [r5, #0]
 8000e30:	f7ff fe1c 	bl	8000a6c <HAL_GetTick>
 8000e34:	4606      	mov	r6, r0
 8000e36:	682b      	ldr	r3, [r5, #0]
 8000e38:	039f      	lsls	r7, r3, #14
 8000e3a:	d4c8      	bmi.n	8000dce <HAL_RCC_OscConfig+0x16>
 8000e3c:	f7ff fe16 	bl	8000a6c <HAL_GetTick>
 8000e40:	1b80      	subs	r0, r0, r6
 8000e42:	2864      	cmp	r0, #100	@ 0x64
 8000e44:	d9f7      	bls.n	8000e36 <HAL_RCC_OscConfig+0x7e>
 8000e46:	2003      	movs	r0, #3
 8000e48:	e7bb      	b.n	8000dc2 <HAL_RCC_OscConfig+0xa>
 8000e4a:	f5b3 2fa0 	cmp.w	r3, #327680	@ 0x50000
 8000e4e:	d104      	bne.n	8000e5a <HAL_RCC_OscConfig+0xa2>
 8000e50:	682b      	ldr	r3, [r5, #0]
 8000e52:	f443 2380 	orr.w	r3, r3, #262144	@ 0x40000
 8000e56:	602b      	str	r3, [r5, #0]
 8000e58:	e7e6      	b.n	8000e28 <HAL_RCC_OscConfig+0x70>
 8000e5a:	682a      	ldr	r2, [r5, #0]
 8000e5c:	f422 3280 	bic.w	r2, r2, #65536	@ 0x10000
 8000e60:	602a      	str	r2, [r5, #0]
 8000e62:	682a      	ldr	r2, [r5, #0]
 8000e64:	f422 2280 	bic.w	r2, r2, #262144	@ 0x40000
 8000e68:	602a      	str	r2, [r5, #0]
 8000e6a:	2b00      	cmp	r3, #0
 8000e6c:	d1e0      	bne.n	8000e30 <HAL_RCC_OscConfig+0x78>
 8000e6e:	f7ff fdfd 	bl	8000a6c <HAL_GetTick>
 8000e72:	4606      	mov	r6, r0
 8000e74:	682b      	ldr	r3, [r5, #0]
 8000e76:	0399      	lsls	r1, r3, #14
 8000e78:	d5a9      	bpl.n	8000dce <HAL_RCC_OscConfig+0x16>
 8000e7a:	f7ff fdf7 	bl	8000a6c <HAL_GetTick>
 8000e7e:	1b80      	subs	r0, r0, r6
 8000e80:	2864      	cmp	r0, #100	@ 0x64
 8000e82:	d9f7      	bls.n	8000e74 <HAL_RCC_OscConfig+0xbc>
 8000e84:	e7df      	b.n	8000e46 <HAL_RCC_OscConfig+0x8e>
 8000e86:	4d7c      	ldr	r5, [pc, #496]	@ (8001078 <HAL_RCC_OscConfig+0x2c0>)
 8000e88:	68ab      	ldr	r3, [r5, #8]
 8000e8a:	68ea      	ldr	r2, [r5, #12]
 8000e8c:	f003 030c 	and.w	r3, r3, #12
 8000e90:	2b0c      	cmp	r3, #12
 8000e92:	d117      	bne.n	8000ec4 <HAL_RCC_OscConfig+0x10c>
 8000e94:	f002 0303 	and.w	r3, r2, #3
 8000e98:	2b02      	cmp	r3, #2
 8000e9a:	d115      	bne.n	8000ec8 <HAL_RCC_OscConfig+0x110>
 8000e9c:	682b      	ldr	r3, [r5, #0]
 8000e9e:	055a      	lsls	r2, r3, #21
 8000ea0:	d502      	bpl.n	8000ea8 <HAL_RCC_OscConfig+0xf0>
 8000ea2:	68e3      	ldr	r3, [r4, #12]
 8000ea4:	2b00      	cmp	r3, #0
 8000ea6:	d08b      	beq.n	8000dc0 <HAL_RCC_OscConfig+0x8>
 8000ea8:	686b      	ldr	r3, [r5, #4]
 8000eaa:	6922      	ldr	r2, [r4, #16]
 8000eac:	f023 43fe 	bic.w	r3, r3, #2130706432	@ 0x7f000000
 8000eb0:	ea43 6302 	orr.w	r3, r3, r2, lsl #24
 8000eb4:	606b      	str	r3, [r5, #4]
 8000eb6:	4b71      	ldr	r3, [pc, #452]	@ (800107c <HAL_RCC_OscConfig+0x2c4>)
 8000eb8:	6818      	ldr	r0, [r3, #0]
 8000eba:	f7ff fda1 	bl	8000a00 <HAL_InitTick>
 8000ebe:	2800      	cmp	r0, #0
 8000ec0:	d088      	beq.n	8000dd4 <HAL_RCC_OscConfig+0x1c>
 8000ec2:	e77d      	b.n	8000dc0 <HAL_RCC_OscConfig+0x8>
 8000ec4:	2b04      	cmp	r3, #4
 8000ec6:	e7e8      	b.n	8000e9a <HAL_RCC_OscConfig+0xe2>
 8000ec8:	68e3      	ldr	r3, [r4, #12]
 8000eca:	b1bb      	cbz	r3, 8000efc <HAL_RCC_OscConfig+0x144>
 8000ecc:	682b      	ldr	r3, [r5, #0]
 8000ece:	f443 7380 	orr.w	r3, r3, #256	@ 0x100
 8000ed2:	602b      	str	r3, [r5, #0]
 8000ed4:	f7ff fdca 	bl	8000a6c <HAL_GetTick>
 8000ed8:	4606      	mov	r6, r0
 8000eda:	682b      	ldr	r3, [r5, #0]
 8000edc:	055b      	lsls	r3, r3, #21
 8000ede:	d507      	bpl.n	8000ef0 <HAL_RCC_OscConfig+0x138>
 8000ee0:	686b      	ldr	r3, [r5, #4]
 8000ee2:	6922      	ldr	r2, [r4, #16]
 8000ee4:	f023 43fe 	bic.w	r3, r3, #2130706432	@ 0x7f000000
 8000ee8:	ea43 6302 	orr.w	r3, r3, r2, lsl #24
 8000eec:	606b      	str	r3, [r5, #4]
 8000eee:	e771      	b.n	8000dd4 <HAL_RCC_OscConfig+0x1c>
 8000ef0:	f7ff fdbc 	bl	8000a6c <HAL_GetTick>
 8000ef4:	1b80      	subs	r0, r0, r6
 8000ef6:	2802      	cmp	r0, #2
 8000ef8:	d9ef      	bls.n	8000eda <HAL_RCC_OscConfig+0x122>
 8000efa:	e7a4      	b.n	8000e46 <HAL_RCC_OscConfig+0x8e>
 8000efc:	682b      	ldr	r3, [r5, #0]
 8000efe:	f423 7380 	bic.w	r3, r3, #256	@ 0x100
 8000f02:	602b      	str	r3, [r5, #0]
 8000f04:	f7ff fdb2 	bl	8000a6c <HAL_GetTick>
 8000f08:	4606      	mov	r6, r0
 8000f0a:	682b      	ldr	r3, [r5, #0]
 8000f0c:	055f      	lsls	r7, r3, #21
 8000f0e:	f57f af61 	bpl.w	8000dd4 <HAL_RCC_OscConfig+0x1c>
 8000f12:	f7ff fdab 	bl	8000a6c <HAL_GetTick>
 8000f16:	1b80      	subs	r0, r0, r6
 8000f18:	2802      	cmp	r0, #2
 8000f1a:	d9f6      	bls.n	8000f0a <HAL_RCC_OscConfig+0x152>
 8000f1c:	e793      	b.n	8000e46 <HAL_RCC_OscConfig+0x8e>
 8000f1e:	6963      	ldr	r3, [r4, #20]
 8000f20:	4d55      	ldr	r5, [pc, #340]	@ (8001078 <HAL_RCC_OscConfig+0x2c0>)
 8000f22:	b19b      	cbz	r3, 8000f4c <HAL_RCC_OscConfig+0x194>
 8000f24:	f8d5 3094 	ldr.w	r3, [r5, #148]	@ 0x94
 8000f28:	f043 0301 	orr.w	r3, r3, #1
 8000f2c:	f8c5 3094 	str.w	r3, [r5, #148]	@ 0x94
 8000f30:	f7ff fd9c 	bl	8000a6c <HAL_GetTick>
 8000f34:	4606      	mov	r6, r0
 8000f36:	f8d5 3094 	ldr.w	r3, [r5, #148]	@ 0x94
 8000f3a:	079b      	lsls	r3, r3, #30
 8000f3c:	f53f af4e 	bmi.w	8000ddc <HAL_RCC_OscConfig+0x24>
 8000f40:	f7ff fd94 	bl	8000a6c <HAL_GetTick>
 8000f44:	1b80      	subs	r0, r0, r6
 8000f46:	2802      	cmp	r0, #2
 8000f48:	d9f5      	bls.n	8000f36 <HAL_RCC_OscConfig+0x17e>
 8000f4a:	e77c      	b.n	8000e46 <HAL_RCC_OscConfig+0x8e>
 8000f4c:	f8d5 3094 	ldr.w	r3, [r5, #148]	@ 0x94
 8000f50:	f023 0301 	bic.w	r3, r3, #1
 8000f54:	f8c5 3094 	str.w	r3, [r5, #148]	@ 0x94
 8000f58:	f7ff fd88 	bl	8000a6c <HAL_GetTick>
 8000f5c:	4606      	mov	r6, r0
 8000f5e:	f8d5 3094 	ldr.w	r3, [r5, #148]	@ 0x94
 8000f62:	079f      	lsls	r7, r3, #30
 8000f64:	f57f af3a 	bpl.w	8000ddc <HAL_RCC_OscConfig+0x24>
 8000f68:	f7ff fd80 	bl	8000a6c <HAL_GetTick>
 8000f6c:	1b80      	subs	r0, r0, r6
 8000f6e:	2802      	cmp	r0, #2
 8000f70:	d9f5      	bls.n	8000f5e <HAL_RCC_OscConfig+0x1a6>
 8000f72:	e768      	b.n	8000e46 <HAL_RCC_OscConfig+0x8e>
 8000f74:	4d40      	ldr	r5, [pc, #256]	@ (8001078 <HAL_RCC_OscConfig+0x2c0>)
 8000f76:	6dab      	ldr	r3, [r5, #88]	@ 0x58
 8000f78:	00d8      	lsls	r0, r3, #3
 8000f7a:	d427      	bmi.n	8000fcc <HAL_RCC_OscConfig+0x214>
 8000f7c:	6dab      	ldr	r3, [r5, #88]	@ 0x58
 8000f7e:	f043 5380 	orr.w	r3, r3, #268435456	@ 0x10000000
 8000f82:	65ab      	str	r3, [r5, #88]	@ 0x58
 8000f84:	6dab      	ldr	r3, [r5, #88]	@ 0x58
 8000f86:	f003 5380 	and.w	r3, r3, #268435456	@ 0x10000000
 8000f8a:	9301      	str	r3, [sp, #4]
 8000f8c:	9b01      	ldr	r3, [sp, #4]
 8000f8e:	2701      	movs	r7, #1
 8000f90:	4e3b      	ldr	r6, [pc, #236]	@ (8001080 <HAL_RCC_OscConfig+0x2c8>)
 8000f92:	6833      	ldr	r3, [r6, #0]
 8000f94:	05d9      	lsls	r1, r3, #23
 8000f96:	d51b      	bpl.n	8000fd0 <HAL_RCC_OscConfig+0x218>
 8000f98:	68a3      	ldr	r3, [r4, #8]
 8000f9a:	2b01      	cmp	r3, #1
 8000f9c:	d129      	bne.n	8000ff2 <HAL_RCC_OscConfig+0x23a>
 8000f9e:	f8d5 3090 	ldr.w	r3, [r5, #144]	@ 0x90
 8000fa2:	f043 0301 	orr.w	r3, r3, #1
 8000fa6:	f8c5 3090 	str.w	r3, [r5, #144]	@ 0x90
 8000faa:	f7ff fd5f 	bl	8000a6c <HAL_GetTick>
 8000fae:	f241 3888 	movw	r8, #5000	@ 0x1388
 8000fb2:	4606      	mov	r6, r0
 8000fb4:	f8d5 3090 	ldr.w	r3, [r5, #144]	@ 0x90
 8000fb8:	079b      	lsls	r3, r3, #30
 8000fba:	d540      	bpl.n	800103e <HAL_RCC_OscConfig+0x286>
 8000fbc:	2f00      	cmp	r7, #0
 8000fbe:	f43f af11 	beq.w	8000de4 <HAL_RCC_OscConfig+0x2c>
 8000fc2:	6dab      	ldr	r3, [r5, #88]	@ 0x58
 8000fc4:	f023 5380 	bic.w	r3, r3, #268435456	@ 0x10000000
 8000fc8:	65ab      	str	r3, [r5, #88]	@ 0x58
 8000fca:	e70b      	b.n	8000de4 <HAL_RCC_OscConfig+0x2c>
 8000fcc:	2700      	movs	r7, #0
 8000fce:	e7df      	b.n	8000f90 <HAL_RCC_OscConfig+0x1d8>
 8000fd0:	6833      	ldr	r3, [r6, #0]
 8000fd2:	f443 7380 	orr.w	r3, r3, #256	@ 0x100
 8000fd6:	6033      	str	r3, [r6, #0]
 8000fd8:	f7ff fd48 	bl	8000a6c <HAL_GetTick>
 8000fdc:	4680      	mov	r8, r0
 8000fde:	6833      	ldr	r3, [r6, #0]
 8000fe0:	05da      	lsls	r2, r3, #23
 8000fe2:	d4d9      	bmi.n	8000f98 <HAL_RCC_OscConfig+0x1e0>
 8000fe4:	f7ff fd42 	bl	8000a6c <HAL_GetTick>
 8000fe8:	eba0 0008 	sub.w	r0, r0, r8
 8000fec:	2802      	cmp	r0, #2
 8000fee:	d9f6      	bls.n	8000fde <HAL_RCC_OscConfig+0x226>
 8000ff0:	e729      	b.n	8000e46 <HAL_RCC_OscConfig+0x8e>
 8000ff2:	2b05      	cmp	r3, #5
 8000ff4:	d106      	bne.n	8001004 <HAL_RCC_OscConfig+0x24c>
 8000ff6:	f8d5 3090 	ldr.w	r3, [r5, #144]	@ 0x90
 8000ffa:	f043 0304 	orr.w	r3, r3, #4
 8000ffe:	f8c5 3090 	str.w	r3, [r5, #144]	@ 0x90
 8001002:	e7cc      	b.n	8000f9e <HAL_RCC_OscConfig+0x1e6>
 8001004:	f8d5 2090 	ldr.w	r2, [r5, #144]	@ 0x90
 8001008:	f022 0201 	bic.w	r2, r2, #1
 800100c:	f8c5 2090 	str.w	r2, [r5, #144]	@ 0x90
 8001010:	f8d5 2090 	ldr.w	r2, [r5, #144]	@ 0x90
 8001014:	f022 0204 	bic.w	r2, r2, #4
 8001018:	f8c5 2090 	str.w	r2, [r5, #144]	@ 0x90
 800101c:	2b00      	cmp	r3, #0
 800101e:	d1c4      	bne.n	8000faa <HAL_RCC_OscConfig+0x1f2>
 8001020:	f7ff fd24 	bl	8000a6c <HAL_GetTick>
 8001024:	f241 3888 	movw	r8, #5000	@ 0x1388
 8001028:	4606      	mov	r6, r0
 800102a:	f8d5 3090 	ldr.w	r3, [r5, #144]	@ 0x90
 800102e:	0799      	lsls	r1, r3, #30
 8001030:	d5c4      	bpl.n	8000fbc <HAL_RCC_OscConfig+0x204>
 8001032:	f7ff fd1b 	bl	8000a6c <HAL_GetTick>
 8001036:	1b80      	subs	r0, r0, r6
 8001038:	4540      	cmp	r0, r8
 800103a:	d9f6      	bls.n	800102a <HAL_RCC_OscConfig+0x272>
 800103c:	e703      	b.n	8000e46 <HAL_RCC_OscConfig+0x8e>
 800103e:	f7ff fd15 	bl	8000a6c <HAL_GetTick>
 8001042:	1b80      	subs	r0, r0, r6
 8001044:	4540      	cmp	r0, r8
 8001046:	d9b5      	bls.n	8000fb4 <HAL_RCC_OscConfig+0x1fc>
 8001048:	e6fd      	b.n	8000e46 <HAL_RCC_OscConfig+0x8e>
 800104a:	69a3      	ldr	r3, [r4, #24]
 800104c:	4d0a      	ldr	r5, [pc, #40]	@ (8001078 <HAL_RCC_OscConfig+0x2c0>)
 800104e:	b1cb      	cbz	r3, 8001084 <HAL_RCC_OscConfig+0x2cc>
 8001050:	f8d5 3098 	ldr.w	r3, [r5, #152]	@ 0x98
 8001054:	f043 0301 	orr.w	r3, r3, #1
 8001058:	f8c5 3098 	str.w	r3, [r5, #152]	@ 0x98
 800105c:	f7ff fd06 	bl	8000a6c <HAL_GetTick>
 8001060:	4606      	mov	r6, r0
 8001062:	f8d5 3098 	ldr.w	r3, [r5, #152]	@ 0x98
 8001066:	079b      	lsls	r3, r3, #30
 8001068:	f53f aec0 	bmi.w	8000dec <HAL_RCC_OscConfig+0x34>
 800106c:	f7ff fcfe 	bl	8000a6c <HAL_GetTick>
 8001070:	1b80      	subs	r0, r0, r6
 8001072:	2802      	cmp	r0, #2
 8001074:	d9f5      	bls.n	8001062 <HAL_RCC_OscConfig+0x2aa>
 8001076:	e6e6      	b.n	8000e46 <HAL_RCC_OscConfig+0x8e>
 8001078:	40021000 	.word	0x40021000
 800107c:	20000008 	.word	0x20000008
 8001080:	40007000 	.word	0x40007000
 8001084:	f8d5 3098 	ldr.w	r3, [r5, #152]	@ 0x98
 8001088:	f023 0301 	bic.w	r3, r3, #1
 800108c:	f8c5 3098 	str.w	r3, [r5, #152]	@ 0x98
 8001090:	f7ff fcec 	bl	8000a6c <HAL_GetTick>
 8001094:	4606      	mov	r6, r0
 8001096:	f8d5 3098 	ldr.w	r3, [r5, #152]	@ 0x98
 800109a:	079f      	lsls	r7, r3, #30
 800109c:	f57f aea6 	bpl.w	8000dec <HAL_RCC_OscConfig+0x34>
 80010a0:	f7ff fce4 	bl	8000a6c <HAL_GetTick>
 80010a4:	1b80      	subs	r0, r0, r6
 80010a6:	2802      	cmp	r0, #2
 80010a8:	d9f5      	bls.n	8001096 <HAL_RCC_OscConfig+0x2de>
 80010aa:	e6cc      	b.n	8000e46 <HAL_RCC_OscConfig+0x8e>
 80010ac:	4d45      	ldr	r5, [pc, #276]	@ (80011c4 <HAL_RCC_OscConfig+0x40c>)
 80010ae:	68aa      	ldr	r2, [r5, #8]
 80010b0:	f002 020c 	and.w	r2, r2, #12
 80010b4:	2a0c      	cmp	r2, #12
 80010b6:	d051      	beq.n	800115c <HAL_RCC_OscConfig+0x3a4>
 80010b8:	2b02      	cmp	r3, #2
 80010ba:	682b      	ldr	r3, [r5, #0]
 80010bc:	f023 7380 	bic.w	r3, r3, #16777216	@ 0x1000000
 80010c0:	602b      	str	r3, [r5, #0]
 80010c2:	d13a      	bne.n	800113a <HAL_RCC_OscConfig+0x382>
 80010c4:	f7ff fcd2 	bl	8000a6c <HAL_GetTick>
 80010c8:	4606      	mov	r6, r0
 80010ca:	682b      	ldr	r3, [r5, #0]
 80010cc:	0199      	lsls	r1, r3, #6
 80010ce:	d42e      	bmi.n	800112e <HAL_RCC_OscConfig+0x376>
 80010d0:	68ea      	ldr	r2, [r5, #12]
 80010d2:	4b3d      	ldr	r3, [pc, #244]	@ (80011c8 <HAL_RCC_OscConfig+0x410>)
 80010d4:	4013      	ands	r3, r2
 80010d6:	6a22      	ldr	r2, [r4, #32]
 80010d8:	4313      	orrs	r3, r2
 80010da:	6aa2      	ldr	r2, [r4, #40]	@ 0x28
 80010dc:	ea43 2302 	orr.w	r3, r3, r2, lsl #8
 80010e0:	6ae2      	ldr	r2, [r4, #44]	@ 0x2c
 80010e2:	ea43 63c2 	orr.w	r3, r3, r2, lsl #27
 80010e6:	6a62      	ldr	r2, [r4, #36]	@ 0x24
 80010e8:	3a01      	subs	r2, #1
 80010ea:	ea43 1302 	orr.w	r3, r3, r2, lsl #4
 80010ee:	6b22      	ldr	r2, [r4, #48]	@ 0x30
 80010f0:	0852      	lsrs	r2, r2, #1
 80010f2:	3a01      	subs	r2, #1
 80010f4:	ea43 5342 	orr.w	r3, r3, r2, lsl #21
 80010f8:	6b62      	ldr	r2, [r4, #52]	@ 0x34
 80010fa:	0852      	lsrs	r2, r2, #1
 80010fc:	3a01      	subs	r2, #1
 80010fe:	ea43 6342 	orr.w	r3, r3, r2, lsl #25
 8001102:	60eb      	str	r3, [r5, #12]
 8001104:	682b      	ldr	r3, [r5, #0]
 8001106:	f043 7380 	orr.w	r3, r3, #16777216	@ 0x1000000
 800110a:	602b      	str	r3, [r5, #0]
 800110c:	68eb      	ldr	r3, [r5, #12]
 800110e:	f043 7380 	orr.w	r3, r3, #16777216	@ 0x1000000
 8001112:	60eb      	str	r3, [r5, #12]
 8001114:	f7ff fcaa 	bl	8000a6c <HAL_GetTick>
 8001118:	4604      	mov	r4, r0
 800111a:	682b      	ldr	r3, [r5, #0]
 800111c:	019a      	lsls	r2, r3, #6
 800111e:	f53f ae69 	bmi.w	8000df4 <HAL_RCC_OscConfig+0x3c>
 8001122:	f7ff fca3 	bl	8000a6c <HAL_GetTick>
 8001126:	1b00      	subs	r0, r0, r4
 8001128:	2802      	cmp	r0, #2
 800112a:	d9f6      	bls.n	800111a <HAL_RCC_OscConfig+0x362>
 800112c:	e68b      	b.n	8000e46 <HAL_RCC_OscConfig+0x8e>
 800112e:	f7ff fc9d 	bl	8000a6c <HAL_GetTick>
 8001132:	1b80      	subs	r0, r0, r6
 8001134:	2802      	cmp	r0, #2
 8001136:	d9c8      	bls.n	80010ca <HAL_RCC_OscConfig+0x312>
 8001138:	e685      	b.n	8000e46 <HAL_RCC_OscConfig+0x8e>
 800113a:	f7ff fc97 	bl	8000a6c <HAL_GetTick>
 800113e:	4604      	mov	r4, r0
 8001140:	682b      	ldr	r3, [r5, #0]
 8001142:	019b      	lsls	r3, r3, #6
 8001144:	d404      	bmi.n	8001150 <HAL_RCC_OscConfig+0x398>
 8001146:	68ea      	ldr	r2, [r5, #12]
 8001148:	4b20      	ldr	r3, [pc, #128]	@ (80011cc <HAL_RCC_OscConfig+0x414>)
 800114a:	4013      	ands	r3, r2
 800114c:	60eb      	str	r3, [r5, #12]
 800114e:	e651      	b.n	8000df4 <HAL_RCC_OscConfig+0x3c>
 8001150:	f7ff fc8c 	bl	8000a6c <HAL_GetTick>
 8001154:	1b00      	subs	r0, r0, r4
 8001156:	2802      	cmp	r0, #2
 8001158:	d9f2      	bls.n	8001140 <HAL_RCC_OscConfig+0x388>
 800115a:	e674      	b.n	8000e46 <HAL_RCC_OscConfig+0x8e>
 800115c:	2b01      	cmp	r3, #1
 800115e:	f43f ae2f 	beq.w	8000dc0 <HAL_RCC_OscConfig+0x8>
 8001162:	68eb      	ldr	r3, [r5, #12]
 8001164:	6a22      	ldr	r2, [r4, #32]
 8001166:	f003 0103 	and.w	r1, r3, #3
 800116a:	4291      	cmp	r1, r2
 800116c:	f47f ae28 	bne.w	8000dc0 <HAL_RCC_OscConfig+0x8>
 8001170:	6a61      	ldr	r1, [r4, #36]	@ 0x24
 8001172:	f003 02f0 	and.w	r2, r3, #240	@ 0xf0
 8001176:	3901      	subs	r1, #1
 8001178:	ebb2 1f01 	cmp.w	r2, r1, lsl #4
 800117c:	f47f ae20 	bne.w	8000dc0 <HAL_RCC_OscConfig+0x8>
 8001180:	6aa1      	ldr	r1, [r4, #40]	@ 0x28
 8001182:	f403 42fe 	and.w	r2, r3, #32512	@ 0x7f00
 8001186:	ebb2 2f01 	cmp.w	r2, r1, lsl #8
 800118a:	f47f ae19 	bne.w	8000dc0 <HAL_RCC_OscConfig+0x8>
 800118e:	6ae1      	ldr	r1, [r4, #44]	@ 0x2c
 8001190:	f003 4278 	and.w	r2, r3, #4160749568	@ 0xf8000000
 8001194:	ebb2 6fc1 	cmp.w	r2, r1, lsl #27
 8001198:	f47f ae12 	bne.w	8000dc0 <HAL_RCC_OscConfig+0x8>
 800119c:	6b22      	ldr	r2, [r4, #48]	@ 0x30
 800119e:	0852      	lsrs	r2, r2, #1
 80011a0:	f403 01c0 	and.w	r1, r3, #6291456	@ 0x600000
 80011a4:	3a01      	subs	r2, #1
 80011a6:	ebb1 5f42 	cmp.w	r1, r2, lsl #21
 80011aa:	f47f ae09 	bne.w	8000dc0 <HAL_RCC_OscConfig+0x8>
 80011ae:	6b62      	ldr	r2, [r4, #52]	@ 0x34
 80011b0:	0852      	lsrs	r2, r2, #1
 80011b2:	3a01      	subs	r2, #1
 80011b4:	f003 63c0 	and.w	r3, r3, #100663296	@ 0x6000000
 80011b8:	ebb3 6f42 	cmp.w	r3, r2, lsl #25
 80011bc:	bf14      	ite	ne
 80011be:	2001      	movne	r0, #1
 80011c0:	2000      	moveq	r0, #0
 80011c2:	e5fe      	b.n	8000dc2 <HAL_RCC_OscConfig+0xa>
 80011c4:	40021000 	.word	0x40021000
 80011c8:	019f800c 	.word	0x019f800c
 80011cc:	feeefffc 	.word	0xfeeefffc

080011d0 <HAL_RCC_GetSysClockFreq>:
 80011d0:	4b17      	ldr	r3, [pc, #92]	@ (8001230 <HAL_RCC_GetSysClockFreq+0x60>)
 80011d2:	689a      	ldr	r2, [r3, #8]
 80011d4:	f002 020c 	and.w	r2, r2, #12
 80011d8:	2a04      	cmp	r2, #4
 80011da:	d023      	beq.n	8001224 <HAL_RCC_GetSysClockFreq+0x54>
 80011dc:	689a      	ldr	r2, [r3, #8]
 80011de:	f002 020c 	and.w	r2, r2, #12
 80011e2:	2a08      	cmp	r2, #8
 80011e4:	d020      	beq.n	8001228 <HAL_RCC_GetSysClockFreq+0x58>
 80011e6:	689a      	ldr	r2, [r3, #8]
 80011e8:	f002 020c 	and.w	r2, r2, #12
 80011ec:	2a0c      	cmp	r2, #12
 80011ee:	d11d      	bne.n	800122c <HAL_RCC_GetSysClockFreq+0x5c>
 80011f0:	68d9      	ldr	r1, [r3, #12]
 80011f2:	68da      	ldr	r2, [r3, #12]
 80011f4:	68d8      	ldr	r0, [r3, #12]
 80011f6:	68db      	ldr	r3, [r3, #12]
 80011f8:	f001 0103 	and.w	r1, r1, #3
 80011fc:	f3c3 6341 	ubfx	r3, r3, #25, #2
 8001200:	2903      	cmp	r1, #3
 8001202:	f3c2 1203 	ubfx	r2, r2, #4, #4
 8001206:	f3c0 2006 	ubfx	r0, r0, #8, #7
 800120a:	f103 0301 	add.w	r3, r3, #1
 800120e:	bf0c      	ite	eq
 8001210:	4908      	ldreq	r1, [pc, #32]	@ (8001234 <HAL_RCC_GetSysClockFreq+0x64>)
 8001212:	4909      	ldrne	r1, [pc, #36]	@ (8001238 <HAL_RCC_GetSysClockFreq+0x68>)
 8001214:	005b      	lsls	r3, r3, #1
 8001216:	3201      	adds	r2, #1
 8001218:	fbb1 f2f2 	udiv	r2, r1, r2
 800121c:	4350      	muls	r0, r2
 800121e:	fbb0 f0f3 	udiv	r0, r0, r3
 8001222:	4770      	bx	lr
 8001224:	4804      	ldr	r0, [pc, #16]	@ (8001238 <HAL_RCC_GetSysClockFreq+0x68>)
 8001226:	4770      	bx	lr
 8001228:	4802      	ldr	r0, [pc, #8]	@ (8001234 <HAL_RCC_GetSysClockFreq+0x64>)
 800122a:	4770      	bx	lr
 800122c:	2000      	movs	r0, #0
 800122e:	4770      	bx	lr
 8001230:	40021000 	.word	0x40021000
 8001234:	007a1200 	.word	0x007a1200
 8001238:	00f42400 	.word	0x00f42400

0800123c <HAL_RCC_ClockConfig>:
 800123c:	e92d 43f8 	stmdb	sp!, {r3, r4, r5, r6, r7, r8, r9, lr}
 8001240:	460e      	mov	r6, r1
 8001242:	4605      	mov	r5, r0
 8001244:	b910      	cbnz	r0, 800124c <HAL_RCC_ClockConfig+0x10>
 8001246:	2001      	movs	r0, #1
 8001248:	e8bd 83f8 	ldmia.w	sp!, {r3, r4, r5, r6, r7, r8, r9, pc}
 800124c:	4a6d      	ldr	r2, [pc, #436]	@ (8001404 <HAL_RCC_ClockConfig+0x1c8>)
 800124e:	6813      	ldr	r3, [r2, #0]
 8001250:	f003 030f 	and.w	r3, r3, #15
 8001254:	428b      	cmp	r3, r1
 8001256:	d345      	bcc.n	80012e4 <HAL_RCC_ClockConfig+0xa8>
 8001258:	6829      	ldr	r1, [r5, #0]
 800125a:	f011 0801 	ands.w	r8, r1, #1
 800125e:	d14c      	bne.n	80012fa <HAL_RCC_ClockConfig+0xbe>
 8001260:	682a      	ldr	r2, [r5, #0]
 8001262:	0791      	lsls	r1, r2, #30
 8001264:	f140 80a7 	bpl.w	80013b6 <HAL_RCC_ClockConfig+0x17a>
 8001268:	4b67      	ldr	r3, [pc, #412]	@ (8001408 <HAL_RCC_ClockConfig+0x1cc>)
 800126a:	f012 0f04 	tst.w	r2, #4
 800126e:	bf1e      	ittt	ne
 8001270:	6899      	ldrne	r1, [r3, #8]
 8001272:	f441 61e0 	orrne.w	r1, r1, #1792	@ 0x700
 8001276:	6099      	strne	r1, [r3, #8]
 8001278:	0712      	lsls	r2, r2, #28
 800127a:	bf41      	itttt	mi
 800127c:	689a      	ldrmi	r2, [r3, #8]
 800127e:	f422 527c 	bicmi.w	r2, r2, #16128	@ 0x3f00
 8001282:	f442 62e0 	orrmi.w	r2, r2, #1792	@ 0x700
 8001286:	609a      	strmi	r2, [r3, #8]
 8001288:	689a      	ldr	r2, [r3, #8]
 800128a:	68a9      	ldr	r1, [r5, #8]
 800128c:	f022 02f0 	bic.w	r2, r2, #240	@ 0xf0
 8001290:	430a      	orrs	r2, r1
 8001292:	609a      	str	r2, [r3, #8]
 8001294:	4c5b      	ldr	r4, [pc, #364]	@ (8001404 <HAL_RCC_ClockConfig+0x1c8>)
 8001296:	6823      	ldr	r3, [r4, #0]
 8001298:	f003 030f 	and.w	r3, r3, #15
 800129c:	42b3      	cmp	r3, r6
 800129e:	f200 8093 	bhi.w	80013c8 <HAL_RCC_ClockConfig+0x18c>
 80012a2:	682a      	ldr	r2, [r5, #0]
 80012a4:	4c58      	ldr	r4, [pc, #352]	@ (8001408 <HAL_RCC_ClockConfig+0x1cc>)
 80012a6:	f012 0f04 	tst.w	r2, #4
 80012aa:	f040 80a3 	bne.w	80013f4 <HAL_RCC_ClockConfig+0x1b8>
 80012ae:	0713      	lsls	r3, r2, #28
 80012b0:	d506      	bpl.n	80012c0 <HAL_RCC_ClockConfig+0x84>
 80012b2:	68a3      	ldr	r3, [r4, #8]
 80012b4:	692a      	ldr	r2, [r5, #16]
 80012b6:	f423 5360 	bic.w	r3, r3, #14336	@ 0x3800
 80012ba:	ea43 03c2 	orr.w	r3, r3, r2, lsl #3
 80012be:	60a3      	str	r3, [r4, #8]
 80012c0:	f7ff ff86 	bl	80011d0 <HAL_RCC_GetSysClockFreq>
 80012c4:	68a3      	ldr	r3, [r4, #8]
 80012c6:	4a51      	ldr	r2, [pc, #324]	@ (800140c <HAL_RCC_ClockConfig+0x1d0>)
 80012c8:	f3c3 1303 	ubfx	r3, r3, #4, #4
 80012cc:	5cd3      	ldrb	r3, [r2, r3]
 80012ce:	f003 031f 	and.w	r3, r3, #31
 80012d2:	40d8      	lsrs	r0, r3
 80012d4:	4b4e      	ldr	r3, [pc, #312]	@ (8001410 <HAL_RCC_ClockConfig+0x1d4>)
 80012d6:	6018      	str	r0, [r3, #0]
 80012d8:	4b4e      	ldr	r3, [pc, #312]	@ (8001414 <HAL_RCC_ClockConfig+0x1d8>)
 80012da:	6818      	ldr	r0, [r3, #0]
 80012dc:	e8bd 43f8 	ldmia.w	sp!, {r3, r4, r5, r6, r7, r8, r9, lr}
 80012e0:	f7ff bb8e 	b.w	8000a00 <HAL_InitTick>
 80012e4:	6813      	ldr	r3, [r2, #0]
 80012e6:	f023 030f 	bic.w	r3, r3, #15
 80012ea:	430b      	orrs	r3, r1
 80012ec:	6013      	str	r3, [r2, #0]
 80012ee:	6813      	ldr	r3, [r2, #0]
 80012f0:	f003 030f 	and.w	r3, r3, #15
 80012f4:	428b      	cmp	r3, r1
 80012f6:	d1a6      	bne.n	8001246 <HAL_RCC_ClockConfig+0xa>
 80012f8:	e7ae      	b.n	8001258 <HAL_RCC_ClockConfig+0x1c>
 80012fa:	686f      	ldr	r7, [r5, #4]
 80012fc:	4c42      	ldr	r4, [pc, #264]	@ (8001408 <HAL_RCC_ClockConfig+0x1cc>)
 80012fe:	2f03      	cmp	r7, #3
 8001300:	6823      	ldr	r3, [r4, #0]
 8001302:	d149      	bne.n	8001398 <HAL_RCC_ClockConfig+0x15c>
 8001304:	019b      	lsls	r3, r3, #6
 8001306:	d59e      	bpl.n	8001246 <HAL_RCC_ClockConfig+0xa>
 8001308:	68e3      	ldr	r3, [r4, #12]
 800130a:	68e2      	ldr	r2, [r4, #12]
 800130c:	f003 0303 	and.w	r3, r3, #3
 8001310:	2b03      	cmp	r3, #3
 8001312:	68e3      	ldr	r3, [r4, #12]
 8001314:	bf0c      	ite	eq
 8001316:	4840      	ldreq	r0, [pc, #256]	@ (8001418 <HAL_RCC_ClockConfig+0x1dc>)
 8001318:	4840      	ldrne	r0, [pc, #256]	@ (800141c <HAL_RCC_ClockConfig+0x1e0>)
 800131a:	f3c2 1203 	ubfx	r2, r2, #4, #4
 800131e:	f3c3 2306 	ubfx	r3, r3, #8, #7
 8001322:	3201      	adds	r2, #1
 8001324:	fbb0 f2f2 	udiv	r2, r0, r2
 8001328:	4353      	muls	r3, r2
 800132a:	68e2      	ldr	r2, [r4, #12]
 800132c:	f3c2 6241 	ubfx	r2, r2, #25, #2
 8001330:	3201      	adds	r2, #1
 8001332:	0052      	lsls	r2, r2, #1
 8001334:	fbb3 f3f2 	udiv	r3, r3, r2
 8001338:	4a39      	ldr	r2, [pc, #228]	@ (8001420 <HAL_RCC_ClockConfig+0x1e4>)
 800133a:	4293      	cmp	r3, r2
 800133c:	d81a      	bhi.n	8001374 <HAL_RCC_ClockConfig+0x138>
 800133e:	f04f 0800 	mov.w	r8, #0
 8001342:	68a3      	ldr	r3, [r4, #8]
 8001344:	f023 0303 	bic.w	r3, r3, #3
 8001348:	433b      	orrs	r3, r7
 800134a:	60a3      	str	r3, [r4, #8]
 800134c:	f7ff fb8e 	bl	8000a6c <HAL_GetTick>
 8001350:	f241 3988 	movw	r9, #5000	@ 0x1388
 8001354:	4607      	mov	r7, r0
 8001356:	68a3      	ldr	r3, [r4, #8]
 8001358:	686a      	ldr	r2, [r5, #4]
 800135a:	f003 030c 	and.w	r3, r3, #12
 800135e:	ebb3 0f82 	cmp.w	r3, r2, lsl #2
 8001362:	f43f af7d 	beq.w	8001260 <HAL_RCC_ClockConfig+0x24>
 8001366:	f7ff fb81 	bl	8000a6c <HAL_GetTick>
 800136a:	1bc0      	subs	r0, r0, r7
 800136c:	4548      	cmp	r0, r9
 800136e:	d9f2      	bls.n	8001356 <HAL_RCC_ClockConfig+0x11a>
 8001370:	2003      	movs	r0, #3
 8001372:	e769      	b.n	8001248 <HAL_RCC_ClockConfig+0xc>
 8001374:	68a3      	ldr	r3, [r4, #8]
 8001376:	f013 0ff0 	tst.w	r3, #240	@ 0xf0
 800137a:	d004      	beq.n	8001386 <HAL_RCC_ClockConfig+0x14a>
 800137c:	0788      	lsls	r0, r1, #30
 800137e:	d5de      	bpl.n	800133e <HAL_RCC_ClockConfig+0x102>
 8001380:	68ab      	ldr	r3, [r5, #8]
 8001382:	2b00      	cmp	r3, #0
 8001384:	d1db      	bne.n	800133e <HAL_RCC_ClockConfig+0x102>
 8001386:	68a3      	ldr	r3, [r4, #8]
 8001388:	f023 03f0 	bic.w	r3, r3, #240	@ 0xf0
 800138c:	f043 0380 	orr.w	r3, r3, #128	@ 0x80
 8001390:	60a3      	str	r3, [r4, #8]
 8001392:	f04f 0880 	mov.w	r8, #128	@ 0x80
 8001396:	e7d4      	b.n	8001342 <HAL_RCC_ClockConfig+0x106>
 8001398:	2f02      	cmp	r7, #2
 800139a:	d109      	bne.n	80013b0 <HAL_RCC_ClockConfig+0x174>
 800139c:	f413 3f00 	tst.w	r3, #131072	@ 0x20000
 80013a0:	f43f af51 	beq.w	8001246 <HAL_RCC_ClockConfig+0xa>
 80013a4:	f7ff ff14 	bl	80011d0 <HAL_RCC_GetSysClockFreq>
 80013a8:	4b1d      	ldr	r3, [pc, #116]	@ (8001420 <HAL_RCC_ClockConfig+0x1e4>)
 80013aa:	4298      	cmp	r0, r3
 80013ac:	d9c7      	bls.n	800133e <HAL_RCC_ClockConfig+0x102>
 80013ae:	e7ea      	b.n	8001386 <HAL_RCC_ClockConfig+0x14a>
 80013b0:	f413 6f80 	tst.w	r3, #1024	@ 0x400
 80013b4:	e7f4      	b.n	80013a0 <HAL_RCC_ClockConfig+0x164>
 80013b6:	f1b8 0f80 	cmp.w	r8, #128	@ 0x80
 80013ba:	bf01      	itttt	eq
 80013bc:	4a12      	ldreq	r2, [pc, #72]	@ (8001408 <HAL_RCC_ClockConfig+0x1cc>)
 80013be:	6893      	ldreq	r3, [r2, #8]
 80013c0:	f023 03f0 	biceq.w	r3, r3, #240	@ 0xf0
 80013c4:	6093      	streq	r3, [r2, #8]
 80013c6:	e765      	b.n	8001294 <HAL_RCC_ClockConfig+0x58>
 80013c8:	6823      	ldr	r3, [r4, #0]
 80013ca:	f023 030f 	bic.w	r3, r3, #15
 80013ce:	4333      	orrs	r3, r6
 80013d0:	6023      	str	r3, [r4, #0]
 80013d2:	f7ff fb4b 	bl	8000a6c <HAL_GetTick>
 80013d6:	f241 3888 	movw	r8, #5000	@ 0x1388
 80013da:	4607      	mov	r7, r0
 80013dc:	6823      	ldr	r3, [r4, #0]
 80013de:	f003 030f 	and.w	r3, r3, #15
 80013e2:	42b3      	cmp	r3, r6
 80013e4:	f43f af5d 	beq.w	80012a2 <HAL_RCC_ClockConfig+0x66>
 80013e8:	f7ff fb40 	bl	8000a6c <HAL_GetTick>
 80013ec:	1bc0      	subs	r0, r0, r7
 80013ee:	4540      	cmp	r0, r8
 80013f0:	d9f4      	bls.n	80013dc <HAL_RCC_ClockConfig+0x1a0>
 80013f2:	e7bd      	b.n	8001370 <HAL_RCC_ClockConfig+0x134>
 80013f4:	68a3      	ldr	r3, [r4, #8]
 80013f6:	68e9      	ldr	r1, [r5, #12]
 80013f8:	f423 63e0 	bic.w	r3, r3, #1792	@ 0x700
 80013fc:	430b      	orrs	r3, r1
 80013fe:	60a3      	str	r3, [r4, #8]
 8001400:	e755      	b.n	80012ae <HAL_RCC_ClockConfig+0x72>
 8001402:	bf00      	nop
 8001404:	40022000 	.word	0x40022000
 8001408:	40021000 	.word	0x40021000
 800140c:	08001f8c 	.word	0x08001f8c
 8001410:	20000000 	.word	0x20000000
 8001414:	20000008 	.word	0x20000008
 8001418:	007a1200 	.word	0x007a1200
 800141c:	00f42400 	.word	0x00f42400
 8001420:	04c4b400 	.word	0x04c4b400

08001424 <SPI_WaitFlagStateUntilTimeout.constprop.0>:
 8001424:	b5f7      	push	{r0, r1, r2, r4, r5, r6, r7, lr}
 8001426:	460e      	mov	r6, r1
 8001428:	4614      	mov	r4, r2
 800142a:	4605      	mov	r5, r0
 800142c:	f7ff fb1e 	bl	8000a6c <HAL_GetTick>
 8001430:	4434      	add	r4, r6
 8001432:	1a24      	subs	r4, r4, r0
 8001434:	f7ff fb1a 	bl	8000a6c <HAL_GetTick>
 8001438:	4b22      	ldr	r3, [pc, #136]	@ (80014c4 <SPI_WaitFlagStateUntilTimeout.constprop.0+0xa0>)
 800143a:	681b      	ldr	r3, [r3, #0]
 800143c:	f3c3 33cb 	ubfx	r3, r3, #15, #12
 8001440:	4363      	muls	r3, r4
 8001442:	4607      	mov	r7, r0
 8001444:	9301      	str	r3, [sp, #4]
 8001446:	682a      	ldr	r2, [r5, #0]
 8001448:	6890      	ldr	r0, [r2, #8]
 800144a:	f010 0080 	ands.w	r0, r0, #128	@ 0x80
 800144e:	d02d      	beq.n	80014ac <SPI_WaitFlagStateUntilTimeout.constprop.0+0x88>
 8001450:	1c73      	adds	r3, r6, #1
 8001452:	d0f9      	beq.n	8001448 <SPI_WaitFlagStateUntilTimeout.constprop.0+0x24>
 8001454:	f7ff fb0a 	bl	8000a6c <HAL_GetTick>
 8001458:	1bc0      	subs	r0, r0, r7
 800145a:	42a0      	cmp	r0, r4
 800145c:	d328      	bcc.n	80014b0 <SPI_WaitFlagStateUntilTimeout.constprop.0+0x8c>
 800145e:	682b      	ldr	r3, [r5, #0]
 8001460:	685a      	ldr	r2, [r3, #4]
 8001462:	f022 02e0 	bic.w	r2, r2, #224	@ 0xe0
 8001466:	605a      	str	r2, [r3, #4]
 8001468:	686a      	ldr	r2, [r5, #4]
 800146a:	f5b2 7f82 	cmp.w	r2, #260	@ 0x104
 800146e:	d10a      	bne.n	8001486 <SPI_WaitFlagStateUntilTimeout.constprop.0+0x62>
 8001470:	68aa      	ldr	r2, [r5, #8]
 8001472:	f5b2 4f00 	cmp.w	r2, #32768	@ 0x8000
 8001476:	d002      	beq.n	800147e <SPI_WaitFlagStateUntilTimeout.constprop.0+0x5a>
 8001478:	f5b2 6f80 	cmp.w	r2, #1024	@ 0x400
 800147c:	d103      	bne.n	8001486 <SPI_WaitFlagStateUntilTimeout.constprop.0+0x62>
 800147e:	681a      	ldr	r2, [r3, #0]
 8001480:	f022 0240 	bic.w	r2, r2, #64	@ 0x40
 8001484:	601a      	str	r2, [r3, #0]
 8001486:	6aaa      	ldr	r2, [r5, #40]	@ 0x28
 8001488:	f5b2 5f00 	cmp.w	r2, #8192	@ 0x2000
 800148c:	d107      	bne.n	800149e <SPI_WaitFlagStateUntilTimeout.constprop.0+0x7a>
 800148e:	681a      	ldr	r2, [r3, #0]
 8001490:	f422 5200 	bic.w	r2, r2, #8192	@ 0x2000
 8001494:	601a      	str	r2, [r3, #0]
 8001496:	681a      	ldr	r2, [r3, #0]
 8001498:	f442 5200 	orr.w	r2, r2, #8192	@ 0x2000
 800149c:	601a      	str	r2, [r3, #0]
 800149e:	2301      	movs	r3, #1
 80014a0:	f885 305d 	strb.w	r3, [r5, #93]	@ 0x5d
 80014a4:	2300      	movs	r3, #0
 80014a6:	f885 305c 	strb.w	r3, [r5, #92]	@ 0x5c
 80014aa:	2003      	movs	r0, #3
 80014ac:	b003      	add	sp, #12
 80014ae:	bdf0      	pop	{r4, r5, r6, r7, pc}
 80014b0:	9a01      	ldr	r2, [sp, #4]
 80014b2:	9b01      	ldr	r3, [sp, #4]
 80014b4:	2a00      	cmp	r2, #0
 80014b6:	f103 33ff 	add.w	r3, r3, #4294967295
 80014ba:	9301      	str	r3, [sp, #4]
 80014bc:	bf08      	it	eq
 80014be:	4614      	moveq	r4, r2
 80014c0:	e7c1      	b.n	8001446 <SPI_WaitFlagStateUntilTimeout.constprop.0+0x22>
 80014c2:	bf00      	nop
 80014c4:	20000000 	.word	0x20000000

080014c8 <SPI_WaitFifoStateUntilTimeout.constprop.0>:
 80014c8:	e92d 43f7 	stmdb	sp!, {r0, r1, r2, r4, r5, r6, r7, r8, r9, lr}
 80014cc:	461c      	mov	r4, r3
 80014ce:	2300      	movs	r3, #0
 80014d0:	4617      	mov	r7, r2
 80014d2:	f88d 3003 	strb.w	r3, [sp, #3]
 80014d6:	4605      	mov	r5, r0
 80014d8:	460e      	mov	r6, r1
 80014da:	f7ff fac7 	bl	8000a6c <HAL_GetTick>
 80014de:	443c      	add	r4, r7
 80014e0:	1a24      	subs	r4, r4, r0
 80014e2:	f7ff fac3 	bl	8000a6c <HAL_GetTick>
 80014e6:	4b29      	ldr	r3, [pc, #164]	@ (800158c <SPI_WaitFifoStateUntilTimeout.constprop.0+0xc4>)
 80014e8:	f8d5 9000 	ldr.w	r9, [r5]
 80014ec:	681b      	ldr	r3, [r3, #0]
 80014ee:	2223      	movs	r2, #35	@ 0x23
 80014f0:	4353      	muls	r3, r2
 80014f2:	0d1b      	lsrs	r3, r3, #20
 80014f4:	4363      	muls	r3, r4
 80014f6:	4680      	mov	r8, r0
 80014f8:	9301      	str	r3, [sp, #4]
 80014fa:	682a      	ldr	r2, [r5, #0]
 80014fc:	6890      	ldr	r0, [r2, #8]
 80014fe:	4030      	ands	r0, r6
 8001500:	d038      	beq.n	8001574 <SPI_WaitFifoStateUntilTimeout.constprop.0+0xac>
 8001502:	f5b6 6fc0 	cmp.w	r6, #1536	@ 0x600
 8001506:	bf01      	itttt	eq
 8001508:	f899 300c 	ldrbeq.w	r3, [r9, #12]
 800150c:	b2db      	uxtbeq	r3, r3
 800150e:	f88d 3003 	strbeq.w	r3, [sp, #3]
 8001512:	f89d 3003 	ldrbeq.w	r3, [sp, #3]
 8001516:	1c7b      	adds	r3, r7, #1
 8001518:	d0f0      	beq.n	80014fc <SPI_WaitFifoStateUntilTimeout.constprop.0+0x34>
 800151a:	f7ff faa7 	bl	8000a6c <HAL_GetTick>
 800151e:	eba0 0008 	sub.w	r0, r0, r8
 8001522:	42a0      	cmp	r0, r4
 8001524:	d329      	bcc.n	800157a <SPI_WaitFifoStateUntilTimeout.constprop.0+0xb2>
 8001526:	682b      	ldr	r3, [r5, #0]
 8001528:	685a      	ldr	r2, [r3, #4]
 800152a:	f022 02e0 	bic.w	r2, r2, #224	@ 0xe0
 800152e:	605a      	str	r2, [r3, #4]
 8001530:	686a      	ldr	r2, [r5, #4]
 8001532:	f5b2 7f82 	cmp.w	r2, #260	@ 0x104
 8001536:	d10a      	bne.n	800154e <SPI_WaitFifoStateUntilTimeout.constprop.0+0x86>
 8001538:	68aa      	ldr	r2, [r5, #8]
 800153a:	f5b2 4f00 	cmp.w	r2, #32768	@ 0x8000
 800153e:	d002      	beq.n	8001546 <SPI_WaitFifoStateUntilTimeout.constprop.0+0x7e>
 8001540:	f5b2 6f80 	cmp.w	r2, #1024	@ 0x400
 8001544:	d103      	bne.n	800154e <SPI_WaitFifoStateUntilTimeout.constprop.0+0x86>
 8001546:	681a      	ldr	r2, [r3, #0]
 8001548:	f022 0240 	bic.w	r2, r2, #64	@ 0x40
 800154c:	601a      	str	r2, [r3, #0]
 800154e:	6aaa      	ldr	r2, [r5, #40]	@ 0x28
 8001550:	f5b2 5f00 	cmp.w	r2, #8192	@ 0x2000
 8001554:	d107      	bne.n	8001566 <SPI_WaitFifoStateUntilTimeout.constprop.0+0x9e>
 8001556:	681a      	ldr	r2, [r3, #0]
 8001558:	f422 5200 	bic.w	r2, r2, #8192	@ 0x2000
 800155c:	601a      	str	r2, [r3, #0]
 800155e:	681a      	ldr	r2, [r3, #0]
 8001560:	f442 5200 	orr.w	r2, r2, #8192	@ 0x2000
 8001564:	601a      	str	r2, [r3, #0]
 8001566:	2301      	movs	r3, #1
 8001568:	f885 305d 	strb.w	r3, [r5, #93]	@ 0x5d
 800156c:	2300      	movs	r3, #0
 800156e:	f885 305c 	strb.w	r3, [r5, #92]	@ 0x5c
 8001572:	2003      	movs	r0, #3
 8001574:	b003      	add	sp, #12
 8001576:	e8bd 83f0 	ldmia.w	sp!, {r4, r5, r6, r7, r8, r9, pc}
 800157a:	9a01      	ldr	r2, [sp, #4]
 800157c:	9b01      	ldr	r3, [sp, #4]
 800157e:	2a00      	cmp	r2, #0
 8001580:	f103 33ff 	add.w	r3, r3, #4294967295
 8001584:	9301      	str	r3, [sp, #4]
 8001586:	bf08      	it	eq
 8001588:	4614      	moveq	r4, r2
 800158a:	e7b6      	b.n	80014fa <SPI_WaitFifoStateUntilTimeout.constprop.0+0x32>
 800158c:	20000000 	.word	0x20000000

08001590 <SPI_EndRxTxTransaction>:
 8001590:	b570      	push	{r4, r5, r6, lr}
 8001592:	4613      	mov	r3, r2
 8001594:	460d      	mov	r5, r1
 8001596:	4616      	mov	r6, r2
 8001598:	460a      	mov	r2, r1
 800159a:	f44f 51c0 	mov.w	r1, #6144	@ 0x1800
 800159e:	4604      	mov	r4, r0
 80015a0:	f7ff ff92 	bl	80014c8 <SPI_WaitFifoStateUntilTimeout.constprop.0>
 80015a4:	b128      	cbz	r0, 80015b2 <SPI_EndRxTxTransaction+0x22>
 80015a6:	6e23      	ldr	r3, [r4, #96]	@ 0x60
 80015a8:	f043 0320 	orr.w	r3, r3, #32
 80015ac:	6623      	str	r3, [r4, #96]	@ 0x60
 80015ae:	2003      	movs	r0, #3
 80015b0:	bd70      	pop	{r4, r5, r6, pc}
 80015b2:	4632      	mov	r2, r6
 80015b4:	4629      	mov	r1, r5
 80015b6:	4620      	mov	r0, r4
 80015b8:	f7ff ff34 	bl	8001424 <SPI_WaitFlagStateUntilTimeout.constprop.0>
 80015bc:	2800      	cmp	r0, #0
 80015be:	d1f2      	bne.n	80015a6 <SPI_EndRxTxTransaction+0x16>
 80015c0:	4633      	mov	r3, r6
 80015c2:	462a      	mov	r2, r5
 80015c4:	f44f 61c0 	mov.w	r1, #1536	@ 0x600
 80015c8:	4620      	mov	r0, r4
 80015ca:	f7ff ff7d 	bl	80014c8 <SPI_WaitFifoStateUntilTimeout.constprop.0>
 80015ce:	2800      	cmp	r0, #0
 80015d0:	d0ee      	beq.n	80015b0 <SPI_EndRxTxTransaction+0x20>
 80015d2:	e7e8      	b.n	80015a6 <SPI_EndRxTxTransaction+0x16>

080015d4 <HAL_SPI_Init>:
 80015d4:	b570      	push	{r4, r5, r6, lr}
 80015d6:	4604      	mov	r4, r0
 80015d8:	2800      	cmp	r0, #0
 80015da:	d067      	beq.n	80016ac <HAL_SPI_Init+0xd8>
 80015dc:	6a43      	ldr	r3, [r0, #36]	@ 0x24
 80015de:	2b00      	cmp	r3, #0
 80015e0:	d15d      	bne.n	800169e <HAL_SPI_Init+0xca>
 80015e2:	6842      	ldr	r2, [r0, #4]
 80015e4:	f5b2 7f82 	cmp.w	r2, #260	@ 0x104
 80015e8:	d000      	beq.n	80015ec <HAL_SPI_Init+0x18>
 80015ea:	61c3      	str	r3, [r0, #28]
 80015ec:	2300      	movs	r3, #0
 80015ee:	62a3      	str	r3, [r4, #40]	@ 0x28
 80015f0:	f894 305d 	ldrb.w	r3, [r4, #93]	@ 0x5d
 80015f4:	f003 02ff 	and.w	r2, r3, #255	@ 0xff
 80015f8:	b923      	cbnz	r3, 8001604 <HAL_SPI_Init+0x30>
 80015fa:	f884 205c 	strb.w	r2, [r4, #92]	@ 0x5c
 80015fe:	4620      	mov	r0, r4
 8001600:	f7ff f952 	bl	80008a8 <HAL_SPI_MspInit>
 8001604:	6822      	ldr	r2, [r4, #0]
 8001606:	68e0      	ldr	r0, [r4, #12]
 8001608:	2302      	movs	r3, #2
 800160a:	f884 305d 	strb.w	r3, [r4, #93]	@ 0x5d
 800160e:	6813      	ldr	r3, [r2, #0]
 8001610:	f5b0 6fe0 	cmp.w	r0, #1792	@ 0x700
 8001614:	f023 0340 	bic.w	r3, r3, #64	@ 0x40
 8001618:	6013      	str	r3, [r2, #0]
 800161a:	f04f 0300 	mov.w	r3, #0
 800161e:	d942      	bls.n	80016a6 <HAL_SPI_Init+0xd2>
 8001620:	461d      	mov	r5, r3
 8001622:	f5b0 6f70 	cmp.w	r0, #3840	@ 0xf00
 8001626:	bf18      	it	ne
 8001628:	62a3      	strne	r3, [r4, #40]	@ 0x28
 800162a:	68a6      	ldr	r6, [r4, #8]
 800162c:	6863      	ldr	r3, [r4, #4]
 800162e:	69a1      	ldr	r1, [r4, #24]
 8001630:	f406 4604 	and.w	r6, r6, #33792	@ 0x8400
 8001634:	f403 7382 	and.w	r3, r3, #260	@ 0x104
 8001638:	4333      	orrs	r3, r6
 800163a:	6926      	ldr	r6, [r4, #16]
 800163c:	f006 0602 	and.w	r6, r6, #2
 8001640:	4333      	orrs	r3, r6
 8001642:	6966      	ldr	r6, [r4, #20]
 8001644:	f006 0601 	and.w	r6, r6, #1
 8001648:	4333      	orrs	r3, r6
 800164a:	f401 7600 	and.w	r6, r1, #512	@ 0x200
 800164e:	4333      	orrs	r3, r6
 8001650:	69e6      	ldr	r6, [r4, #28]
 8001652:	f006 0638 	and.w	r6, r6, #56	@ 0x38
 8001656:	4333      	orrs	r3, r6
 8001658:	6a26      	ldr	r6, [r4, #32]
 800165a:	f006 0680 	and.w	r6, r6, #128	@ 0x80
 800165e:	4333      	orrs	r3, r6
 8001660:	6aa6      	ldr	r6, [r4, #40]	@ 0x28
 8001662:	f406 5600 	and.w	r6, r6, #8192	@ 0x2000
 8001666:	4333      	orrs	r3, r6
 8001668:	6013      	str	r3, [r2, #0]
 800166a:	6b66      	ldr	r6, [r4, #52]	@ 0x34
 800166c:	6a63      	ldr	r3, [r4, #36]	@ 0x24
 800166e:	f006 0608 	and.w	r6, r6, #8
 8001672:	f003 0310 	and.w	r3, r3, #16
 8001676:	f400 6070 	and.w	r0, r0, #3840	@ 0xf00
 800167a:	4333      	orrs	r3, r6
 800167c:	0c09      	lsrs	r1, r1, #16
 800167e:	4303      	orrs	r3, r0
 8001680:	f001 0104 	and.w	r1, r1, #4
 8001684:	430b      	orrs	r3, r1
 8001686:	432b      	orrs	r3, r5
 8001688:	6053      	str	r3, [r2, #4]
 800168a:	69d3      	ldr	r3, [r2, #28]
 800168c:	f423 6300 	bic.w	r3, r3, #2048	@ 0x800
 8001690:	61d3      	str	r3, [r2, #28]
 8001692:	2000      	movs	r0, #0
 8001694:	2301      	movs	r3, #1
 8001696:	6620      	str	r0, [r4, #96]	@ 0x60
 8001698:	f884 305d 	strb.w	r3, [r4, #93]	@ 0x5d
 800169c:	bd70      	pop	{r4, r5, r6, pc}
 800169e:	2300      	movs	r3, #0
 80016a0:	e9c0 3304 	strd	r3, r3, [r0, #16]
 80016a4:	e7a2      	b.n	80015ec <HAL_SPI_Init+0x18>
 80016a6:	f44f 5580 	mov.w	r5, #4096	@ 0x1000
 80016aa:	e7bc      	b.n	8001626 <HAL_SPI_Init+0x52>
 80016ac:	2001      	movs	r0, #1
 80016ae:	e7f5      	b.n	800169c <HAL_SPI_Init+0xc8>

080016b0 <HAL_SPI_Transmit>:
 80016b0:	e92d 43f7 	stmdb	sp!, {r0, r1, r2, r4, r5, r6, r7, r8, r9, lr}
 80016b4:	4604      	mov	r4, r0
 80016b6:	461f      	mov	r7, r3
 80016b8:	460d      	mov	r5, r1
 80016ba:	4690      	mov	r8, r2
 80016bc:	f7ff f9d6 	bl	8000a6c <HAL_GetTick>
 80016c0:	f894 305d 	ldrb.w	r3, [r4, #93]	@ 0x5d
 80016c4:	2b01      	cmp	r3, #1
 80016c6:	4681      	mov	r9, r0
 80016c8:	b2d8      	uxtb	r0, r3
 80016ca:	f040 80b5 	bne.w	8001838 <HAL_SPI_Transmit+0x188>
 80016ce:	2d00      	cmp	r5, #0
 80016d0:	d076      	beq.n	80017c0 <HAL_SPI_Transmit+0x110>
 80016d2:	f1b8 0f00 	cmp.w	r8, #0
 80016d6:	d073      	beq.n	80017c0 <HAL_SPI_Transmit+0x110>
 80016d8:	f894 305c 	ldrb.w	r3, [r4, #92]	@ 0x5c
 80016dc:	2b01      	cmp	r3, #1
 80016de:	f000 80ab 	beq.w	8001838 <HAL_SPI_Transmit+0x188>
 80016e2:	2303      	movs	r3, #3
 80016e4:	f884 305d 	strb.w	r3, [r4, #93]	@ 0x5d
 80016e8:	2300      	movs	r3, #0
 80016ea:	6623      	str	r3, [r4, #96]	@ 0x60
 80016ec:	e9c4 3313 	strd	r3, r3, [r4, #76]	@ 0x4c
 80016f0:	f8a4 803e 	strh.w	r8, [r4, #62]	@ 0x3e
 80016f4:	6423      	str	r3, [r4, #64]	@ 0x40
 80016f6:	f8a4 3044 	strh.w	r3, [r4, #68]	@ 0x44
 80016fa:	f8a4 3046 	strh.w	r3, [r4, #70]	@ 0x46
 80016fe:	68a3      	ldr	r3, [r4, #8]
 8001700:	6826      	ldr	r6, [r4, #0]
 8001702:	f884 005c 	strb.w	r0, [r4, #92]	@ 0x5c
 8001706:	f5b3 4f00 	cmp.w	r3, #32768	@ 0x8000
 800170a:	63a5      	str	r5, [r4, #56]	@ 0x38
 800170c:	f8a4 803c 	strh.w	r8, [r4, #60]	@ 0x3c
 8001710:	d107      	bne.n	8001722 <HAL_SPI_Transmit+0x72>
 8001712:	6833      	ldr	r3, [r6, #0]
 8001714:	f023 0340 	bic.w	r3, r3, #64	@ 0x40
 8001718:	6033      	str	r3, [r6, #0]
 800171a:	6833      	ldr	r3, [r6, #0]
 800171c:	f443 4380 	orr.w	r3, r3, #16384	@ 0x4000
 8001720:	6033      	str	r3, [r6, #0]
 8001722:	6833      	ldr	r3, [r6, #0]
 8001724:	68e2      	ldr	r2, [r4, #12]
 8001726:	065b      	lsls	r3, r3, #25
 8001728:	bf5e      	ittt	pl
 800172a:	6833      	ldrpl	r3, [r6, #0]
 800172c:	f043 0340 	orrpl.w	r3, r3, #64	@ 0x40
 8001730:	6033      	strpl	r3, [r6, #0]
 8001732:	f5b2 6fe0 	cmp.w	r2, #1792	@ 0x700
 8001736:	6863      	ldr	r3, [r4, #4]
 8001738:	d945      	bls.n	80017c6 <HAL_SPI_Transmit+0x116>
 800173a:	b113      	cbz	r3, 8001742 <HAL_SPI_Transmit+0x92>
 800173c:	f1b8 0f01 	cmp.w	r8, #1
 8001740:	d107      	bne.n	8001752 <HAL_SPI_Transmit+0xa2>
 8001742:	f835 3b02 	ldrh.w	r3, [r5], #2
 8001746:	60f3      	str	r3, [r6, #12]
 8001748:	63a5      	str	r5, [r4, #56]	@ 0x38
 800174a:	8fe3      	ldrh	r3, [r4, #62]	@ 0x3e
 800174c:	3b01      	subs	r3, #1
 800174e:	b29b      	uxth	r3, r3
 8001750:	87e3      	strh	r3, [r4, #62]	@ 0x3e
 8001752:	8fe3      	ldrh	r3, [r4, #62]	@ 0x3e
 8001754:	b29b      	uxth	r3, r3
 8001756:	b9d3      	cbnz	r3, 800178e <HAL_SPI_Transmit+0xde>
 8001758:	464a      	mov	r2, r9
 800175a:	4639      	mov	r1, r7
 800175c:	4620      	mov	r0, r4
 800175e:	f7ff ff17 	bl	8001590 <SPI_EndRxTxTransaction>
 8001762:	2800      	cmp	r0, #0
 8001764:	d165      	bne.n	8001832 <HAL_SPI_Transmit+0x182>
 8001766:	68a3      	ldr	r3, [r4, #8]
 8001768:	b933      	cbnz	r3, 8001778 <HAL_SPI_Transmit+0xc8>
 800176a:	9301      	str	r3, [sp, #4]
 800176c:	6823      	ldr	r3, [r4, #0]
 800176e:	68da      	ldr	r2, [r3, #12]
 8001770:	9201      	str	r2, [sp, #4]
 8001772:	689b      	ldr	r3, [r3, #8]
 8001774:	9301      	str	r3, [sp, #4]
 8001776:	9b01      	ldr	r3, [sp, #4]
 8001778:	2301      	movs	r3, #1
 800177a:	f884 305d 	strb.w	r3, [r4, #93]	@ 0x5d
 800177e:	6e20      	ldr	r0, [r4, #96]	@ 0x60
 8001780:	2300      	movs	r3, #0
 8001782:	1ac0      	subs	r0, r0, r3
 8001784:	f884 305c 	strb.w	r3, [r4, #92]	@ 0x5c
 8001788:	bf18      	it	ne
 800178a:	2001      	movne	r0, #1
 800178c:	e018      	b.n	80017c0 <HAL_SPI_Transmit+0x110>
 800178e:	6822      	ldr	r2, [r4, #0]
 8001790:	6893      	ldr	r3, [r2, #8]
 8001792:	079d      	lsls	r5, r3, #30
 8001794:	d505      	bpl.n	80017a2 <HAL_SPI_Transmit+0xf2>
 8001796:	6ba3      	ldr	r3, [r4, #56]	@ 0x38
 8001798:	f833 1b02 	ldrh.w	r1, [r3], #2
 800179c:	60d1      	str	r1, [r2, #12]
 800179e:	63a3      	str	r3, [r4, #56]	@ 0x38
 80017a0:	e7d3      	b.n	800174a <HAL_SPI_Transmit+0x9a>
 80017a2:	f7ff f963 	bl	8000a6c <HAL_GetTick>
 80017a6:	eba0 0009 	sub.w	r0, r0, r9
 80017aa:	42b8      	cmp	r0, r7
 80017ac:	d3d1      	bcc.n	8001752 <HAL_SPI_Transmit+0xa2>
 80017ae:	1c78      	adds	r0, r7, #1
 80017b0:	d0cf      	beq.n	8001752 <HAL_SPI_Transmit+0xa2>
 80017b2:	2301      	movs	r3, #1
 80017b4:	f884 305d 	strb.w	r3, [r4, #93]	@ 0x5d
 80017b8:	2300      	movs	r3, #0
 80017ba:	f884 305c 	strb.w	r3, [r4, #92]	@ 0x5c
 80017be:	2003      	movs	r0, #3
 80017c0:	b003      	add	sp, #12
 80017c2:	e8bd 83f0 	ldmia.w	sp!, {r4, r5, r6, r7, r8, r9, pc}
 80017c6:	b113      	cbz	r3, 80017ce <HAL_SPI_Transmit+0x11e>
 80017c8:	f1b8 0f01 	cmp.w	r8, #1
 80017cc:	d113      	bne.n	80017f6 <HAL_SPI_Transmit+0x146>
 80017ce:	8fe3      	ldrh	r3, [r4, #62]	@ 0x3e
 80017d0:	b29b      	uxth	r3, r3
 80017d2:	2b01      	cmp	r3, #1
 80017d4:	d906      	bls.n	80017e4 <HAL_SPI_Transmit+0x134>
 80017d6:	f835 3b02 	ldrh.w	r3, [r5], #2
 80017da:	60f3      	str	r3, [r6, #12]
 80017dc:	63a5      	str	r5, [r4, #56]	@ 0x38
 80017de:	8fe3      	ldrh	r3, [r4, #62]	@ 0x3e
 80017e0:	3b02      	subs	r3, #2
 80017e2:	e006      	b.n	80017f2 <HAL_SPI_Transmit+0x142>
 80017e4:	782b      	ldrb	r3, [r5, #0]
 80017e6:	7333      	strb	r3, [r6, #12]
 80017e8:	6ba3      	ldr	r3, [r4, #56]	@ 0x38
 80017ea:	3301      	adds	r3, #1
 80017ec:	63a3      	str	r3, [r4, #56]	@ 0x38
 80017ee:	8fe3      	ldrh	r3, [r4, #62]	@ 0x3e
 80017f0:	3b01      	subs	r3, #1
 80017f2:	b29b      	uxth	r3, r3
 80017f4:	87e3      	strh	r3, [r4, #62]	@ 0x3e
 80017f6:	8fe3      	ldrh	r3, [r4, #62]	@ 0x3e
 80017f8:	b29b      	uxth	r3, r3
 80017fa:	2b00      	cmp	r3, #0
 80017fc:	d0ac      	beq.n	8001758 <HAL_SPI_Transmit+0xa8>
 80017fe:	6822      	ldr	r2, [r4, #0]
 8001800:	6893      	ldr	r3, [r2, #8]
 8001802:	0799      	lsls	r1, r3, #30
 8001804:	d50c      	bpl.n	8001820 <HAL_SPI_Transmit+0x170>
 8001806:	8fe1      	ldrh	r1, [r4, #62]	@ 0x3e
 8001808:	6ba3      	ldr	r3, [r4, #56]	@ 0x38
 800180a:	b289      	uxth	r1, r1
 800180c:	2901      	cmp	r1, #1
 800180e:	d904      	bls.n	800181a <HAL_SPI_Transmit+0x16a>
 8001810:	f833 1b02 	ldrh.w	r1, [r3], #2
 8001814:	60d1      	str	r1, [r2, #12]
 8001816:	63a3      	str	r3, [r4, #56]	@ 0x38
 8001818:	e7e1      	b.n	80017de <HAL_SPI_Transmit+0x12e>
 800181a:	781b      	ldrb	r3, [r3, #0]
 800181c:	7313      	strb	r3, [r2, #12]
 800181e:	e7e3      	b.n	80017e8 <HAL_SPI_Transmit+0x138>
 8001820:	f7ff f924 	bl	8000a6c <HAL_GetTick>
 8001824:	eba0 0009 	sub.w	r0, r0, r9
 8001828:	42b8      	cmp	r0, r7
 800182a:	d3e4      	bcc.n	80017f6 <HAL_SPI_Transmit+0x146>
 800182c:	1c7b      	adds	r3, r7, #1
 800182e:	d0e2      	beq.n	80017f6 <HAL_SPI_Transmit+0x146>
 8001830:	e7bf      	b.n	80017b2 <HAL_SPI_Transmit+0x102>
 8001832:	2320      	movs	r3, #32
 8001834:	6623      	str	r3, [r4, #96]	@ 0x60
 8001836:	e796      	b.n	8001766 <HAL_SPI_Transmit+0xb6>
 8001838:	2002      	movs	r0, #2
 800183a:	e7c1      	b.n	80017c0 <HAL_SPI_Transmit+0x110>

0800183c <TIM_OC1_SetConfig>:
 800183c:	6a03      	ldr	r3, [r0, #32]
 800183e:	6a02      	ldr	r2, [r0, #32]
 8001840:	f022 0201 	bic.w	r2, r2, #1
 8001844:	b570      	push	{r4, r5, r6, lr}
 8001846:	6202      	str	r2, [r0, #32]
 8001848:	6844      	ldr	r4, [r0, #4]
 800184a:	6982      	ldr	r2, [r0, #24]
 800184c:	680d      	ldr	r5, [r1, #0]
 800184e:	f422 3280 	bic.w	r2, r2, #65536	@ 0x10000
 8001852:	f022 0273 	bic.w	r2, r2, #115	@ 0x73
 8001856:	432a      	orrs	r2, r5
 8001858:	688d      	ldr	r5, [r1, #8]
 800185a:	f023 0302 	bic.w	r3, r3, #2
 800185e:	432b      	orrs	r3, r5
 8001860:	4d12      	ldr	r5, [pc, #72]	@ (80018ac <TIM_OC1_SetConfig+0x70>)
 8001862:	42a8      	cmp	r0, r5
 8001864:	d00f      	beq.n	8001886 <TIM_OC1_SetConfig+0x4a>
 8001866:	f505 6500 	add.w	r5, r5, #2048	@ 0x800
 800186a:	42a8      	cmp	r0, r5
 800186c:	d00b      	beq.n	8001886 <TIM_OC1_SetConfig+0x4a>
 800186e:	f505 6540 	add.w	r5, r5, #3072	@ 0xc00
 8001872:	42a8      	cmp	r0, r5
 8001874:	d007      	beq.n	8001886 <TIM_OC1_SetConfig+0x4a>
 8001876:	f505 6580 	add.w	r5, r5, #1024	@ 0x400
 800187a:	42a8      	cmp	r0, r5
 800187c:	d003      	beq.n	8001886 <TIM_OC1_SetConfig+0x4a>
 800187e:	f505 6580 	add.w	r5, r5, #1024	@ 0x400
 8001882:	42a8      	cmp	r0, r5
 8001884:	d10b      	bne.n	800189e <TIM_OC1_SetConfig+0x62>
 8001886:	68cd      	ldr	r5, [r1, #12]
 8001888:	f023 0308 	bic.w	r3, r3, #8
 800188c:	432b      	orrs	r3, r5
 800188e:	f424 7540 	bic.w	r5, r4, #768	@ 0x300
 8001892:	e9d1 4605 	ldrd	r4, r6, [r1, #20]
 8001896:	4334      	orrs	r4, r6
 8001898:	f023 0304 	bic.w	r3, r3, #4
 800189c:	432c      	orrs	r4, r5
 800189e:	6044      	str	r4, [r0, #4]
 80018a0:	6182      	str	r2, [r0, #24]
 80018a2:	684a      	ldr	r2, [r1, #4]
 80018a4:	6342      	str	r2, [r0, #52]	@ 0x34
 80018a6:	6203      	str	r3, [r0, #32]
 80018a8:	bd70      	pop	{r4, r5, r6, pc}
 80018aa:	bf00      	nop
 80018ac:	40012c00 	.word	0x40012c00

080018b0 <TIM_OC3_SetConfig>:
 80018b0:	6a03      	ldr	r3, [r0, #32]
 80018b2:	6a02      	ldr	r2, [r0, #32]
 80018b4:	f422 7280 	bic.w	r2, r2, #256	@ 0x100
 80018b8:	b570      	push	{r4, r5, r6, lr}
 80018ba:	6202      	str	r2, [r0, #32]
 80018bc:	6844      	ldr	r4, [r0, #4]
 80018be:	69c2      	ldr	r2, [r0, #28]
 80018c0:	680d      	ldr	r5, [r1, #0]
 80018c2:	f422 3280 	bic.w	r2, r2, #65536	@ 0x10000
 80018c6:	f022 0273 	bic.w	r2, r2, #115	@ 0x73
 80018ca:	432a      	orrs	r2, r5
 80018cc:	688d      	ldr	r5, [r1, #8]
 80018ce:	f423 7300 	bic.w	r3, r3, #512	@ 0x200
 80018d2:	ea43 2305 	orr.w	r3, r3, r5, lsl #8
 80018d6:	4d14      	ldr	r5, [pc, #80]	@ (8001928 <TIM_OC3_SetConfig+0x78>)
 80018d8:	42a8      	cmp	r0, r5
 80018da:	d00f      	beq.n	80018fc <TIM_OC3_SetConfig+0x4c>
 80018dc:	f505 6500 	add.w	r5, r5, #2048	@ 0x800
 80018e0:	42a8      	cmp	r0, r5
 80018e2:	d00b      	beq.n	80018fc <TIM_OC3_SetConfig+0x4c>
 80018e4:	f505 6540 	add.w	r5, r5, #3072	@ 0xc00
 80018e8:	42a8      	cmp	r0, r5
 80018ea:	d10f      	bne.n	800190c <TIM_OC3_SetConfig+0x5c>
 80018ec:	f424 5540 	bic.w	r5, r4, #12288	@ 0x3000
 80018f0:	e9d1 4605 	ldrd	r4, r6, [r1, #20]
 80018f4:	4334      	orrs	r4, r6
 80018f6:	ea45 1404 	orr.w	r4, r5, r4, lsl #4
 80018fa:	e00e      	b.n	800191a <TIM_OC3_SetConfig+0x6a>
 80018fc:	68cd      	ldr	r5, [r1, #12]
 80018fe:	f423 6300 	bic.w	r3, r3, #2048	@ 0x800
 8001902:	ea43 2305 	orr.w	r3, r3, r5, lsl #8
 8001906:	f423 6380 	bic.w	r3, r3, #1024	@ 0x400
 800190a:	e7ef      	b.n	80018ec <TIM_OC3_SetConfig+0x3c>
 800190c:	4d07      	ldr	r5, [pc, #28]	@ (800192c <TIM_OC3_SetConfig+0x7c>)
 800190e:	42a8      	cmp	r0, r5
 8001910:	d0ec      	beq.n	80018ec <TIM_OC3_SetConfig+0x3c>
 8001912:	f505 6580 	add.w	r5, r5, #1024	@ 0x400
 8001916:	42a8      	cmp	r0, r5
 8001918:	d0e8      	beq.n	80018ec <TIM_OC3_SetConfig+0x3c>
 800191a:	6044      	str	r4, [r0, #4]
 800191c:	61c2      	str	r2, [r0, #28]
 800191e:	684a      	ldr	r2, [r1, #4]
 8001920:	63c2      	str	r2, [r0, #60]	@ 0x3c
 8001922:	6203      	str	r3, [r0, #32]
 8001924:	bd70      	pop	{r4, r5, r6, pc}
 8001926:	bf00      	nop
 8001928:	40012c00 	.word	0x40012c00
 800192c:	40014400 	.word	0x40014400

08001930 <TIM_OC4_SetConfig>:
 8001930:	6a03      	ldr	r3, [r0, #32]
 8001932:	6a02      	ldr	r2, [r0, #32]
 8001934:	f422 5280 	bic.w	r2, r2, #4096	@ 0x1000
 8001938:	b570      	push	{r4, r5, r6, lr}
 800193a:	6202      	str	r2, [r0, #32]
 800193c:	6844      	ldr	r4, [r0, #4]
 800193e:	69c2      	ldr	r2, [r0, #28]
 8001940:	680d      	ldr	r5, [r1, #0]
 8001942:	f022 7280 	bic.w	r2, r2, #16777216	@ 0x1000000
 8001946:	f422 42e6 	bic.w	r2, r2, #29440	@ 0x7300
 800194a:	ea42 2205 	orr.w	r2, r2, r5, lsl #8
 800194e:	688d      	ldr	r5, [r1, #8]
 8001950:	f423 5300 	bic.w	r3, r3, #8192	@ 0x2000
 8001954:	ea43 3305 	orr.w	r3, r3, r5, lsl #12
 8001958:	4d13      	ldr	r5, [pc, #76]	@ (80019a8 <TIM_OC4_SetConfig+0x78>)
 800195a:	42a8      	cmp	r0, r5
 800195c:	d00f      	beq.n	800197e <TIM_OC4_SetConfig+0x4e>
 800195e:	f505 6500 	add.w	r5, r5, #2048	@ 0x800
 8001962:	42a8      	cmp	r0, r5
 8001964:	d00b      	beq.n	800197e <TIM_OC4_SetConfig+0x4e>
 8001966:	f505 6540 	add.w	r5, r5, #3072	@ 0xc00
 800196a:	42a8      	cmp	r0, r5
 800196c:	d10f      	bne.n	800198e <TIM_OC4_SetConfig+0x5e>
 800196e:	f424 4540 	bic.w	r5, r4, #49152	@ 0xc000
 8001972:	e9d1 4605 	ldrd	r4, r6, [r1, #20]
 8001976:	4334      	orrs	r4, r6
 8001978:	ea45 1484 	orr.w	r4, r5, r4, lsl #6
 800197c:	e00e      	b.n	800199c <TIM_OC4_SetConfig+0x6c>
 800197e:	68cd      	ldr	r5, [r1, #12]
 8001980:	f423 4300 	bic.w	r3, r3, #32768	@ 0x8000
 8001984:	ea43 3305 	orr.w	r3, r3, r5, lsl #12
 8001988:	f423 4380 	bic.w	r3, r3, #16384	@ 0x4000
 800198c:	e7ef      	b.n	800196e <TIM_OC4_SetConfig+0x3e>
 800198e:	4d07      	ldr	r5, [pc, #28]	@ (80019ac <TIM_OC4_SetConfig+0x7c>)
 8001990:	42a8      	cmp	r0, r5
 8001992:	d0ec      	beq.n	800196e <TIM_OC4_SetConfig+0x3e>
 8001994:	f505 6580 	add.w	r5, r5, #1024	@ 0x400
 8001998:	42a8      	cmp	r0, r5
 800199a:	d0e8      	beq.n	800196e <TIM_OC4_SetConfig+0x3e>
 800199c:	6044      	str	r4, [r0, #4]
 800199e:	61c2      	str	r2, [r0, #28]
 80019a0:	684a      	ldr	r2, [r1, #4]
 80019a2:	6402      	str	r2, [r0, #64]	@ 0x40
 80019a4:	6203      	str	r3, [r0, #32]
 80019a6:	bd70      	pop	{r4, r5, r6, pc}
 80019a8:	40012c00 	.word	0x40012c00
 80019ac:	40014400 	.word	0x40014400

080019b0 <TIM_OC5_SetConfig>:
 80019b0:	6a03      	ldr	r3, [r0, #32]
 80019b2:	6a02      	ldr	r2, [r0, #32]
 80019b4:	f422 3280 	bic.w	r2, r2, #65536	@ 0x10000
 80019b8:	b530      	push	{r4, r5, lr}
 80019ba:	6202      	str	r2, [r0, #32]
 80019bc:	6844      	ldr	r4, [r0, #4]
 80019be:	6d02      	ldr	r2, [r0, #80]	@ 0x50
 80019c0:	680d      	ldr	r5, [r1, #0]
 80019c2:	f422 3280 	bic.w	r2, r2, #65536	@ 0x10000
 80019c6:	f022 0270 	bic.w	r2, r2, #112	@ 0x70
 80019ca:	432a      	orrs	r2, r5
 80019cc:	688d      	ldr	r5, [r1, #8]
 80019ce:	f423 3300 	bic.w	r3, r3, #131072	@ 0x20000
 80019d2:	ea43 4305 	orr.w	r3, r3, r5, lsl #16
 80019d6:	4d0f      	ldr	r5, [pc, #60]	@ (8001a14 <TIM_OC5_SetConfig+0x64>)
 80019d8:	42a8      	cmp	r0, r5
 80019da:	d00f      	beq.n	80019fc <TIM_OC5_SetConfig+0x4c>
 80019dc:	f505 6500 	add.w	r5, r5, #2048	@ 0x800
 80019e0:	42a8      	cmp	r0, r5
 80019e2:	d00b      	beq.n	80019fc <TIM_OC5_SetConfig+0x4c>
 80019e4:	f505 6540 	add.w	r5, r5, #3072	@ 0xc00
 80019e8:	42a8      	cmp	r0, r5
 80019ea:	d007      	beq.n	80019fc <TIM_OC5_SetConfig+0x4c>
 80019ec:	f505 6580 	add.w	r5, r5, #1024	@ 0x400
 80019f0:	42a8      	cmp	r0, r5
 80019f2:	d003      	beq.n	80019fc <TIM_OC5_SetConfig+0x4c>
 80019f4:	f505 6580 	add.w	r5, r5, #1024	@ 0x400
 80019f8:	42a8      	cmp	r0, r5
 80019fa:	d104      	bne.n	8001a06 <TIM_OC5_SetConfig+0x56>
 80019fc:	694d      	ldr	r5, [r1, #20]
 80019fe:	f424 3480 	bic.w	r4, r4, #65536	@ 0x10000
 8001a02:	ea44 2405 	orr.w	r4, r4, r5, lsl #8
 8001a06:	6044      	str	r4, [r0, #4]
 8001a08:	6502      	str	r2, [r0, #80]	@ 0x50
 8001a0a:	684a      	ldr	r2, [r1, #4]
 8001a0c:	6482      	str	r2, [r0, #72]	@ 0x48
 8001a0e:	6203      	str	r3, [r0, #32]
 8001a10:	bd30      	pop	{r4, r5, pc}
 8001a12:	bf00      	nop
 8001a14:	40012c00 	.word	0x40012c00

08001a18 <TIM_OC6_SetConfig>:
 8001a18:	6a03      	ldr	r3, [r0, #32]
 8001a1a:	6a02      	ldr	r2, [r0, #32]
 8001a1c:	f422 1280 	bic.w	r2, r2, #1048576	@ 0x100000
 8001a20:	b530      	push	{r4, r5, lr}
 8001a22:	6202      	str	r2, [r0, #32]
 8001a24:	6844      	ldr	r4, [r0, #4]
 8001a26:	6d02      	ldr	r2, [r0, #80]	@ 0x50
 8001a28:	680d      	ldr	r5, [r1, #0]
 8001a2a:	f022 7280 	bic.w	r2, r2, #16777216	@ 0x1000000
 8001a2e:	f422 42e0 	bic.w	r2, r2, #28672	@ 0x7000
 8001a32:	ea42 2205 	orr.w	r2, r2, r5, lsl #8
 8001a36:	688d      	ldr	r5, [r1, #8]
 8001a38:	f423 1300 	bic.w	r3, r3, #2097152	@ 0x200000
 8001a3c:	ea43 5305 	orr.w	r3, r3, r5, lsl #20
 8001a40:	4d0e      	ldr	r5, [pc, #56]	@ (8001a7c <TIM_OC6_SetConfig+0x64>)
 8001a42:	42a8      	cmp	r0, r5
 8001a44:	d00f      	beq.n	8001a66 <TIM_OC6_SetConfig+0x4e>
 8001a46:	f505 6500 	add.w	r5, r5, #2048	@ 0x800
 8001a4a:	42a8      	cmp	r0, r5
 8001a4c:	d00b      	beq.n	8001a66 <TIM_OC6_SetConfig+0x4e>
 8001a4e:	f505 6540 	add.w	r5, r5, #3072	@ 0xc00
 8001a52:	42a8      	cmp	r0, r5
 8001a54:	d007      	beq.n	8001a66 <TIM_OC6_SetConfig+0x4e>
 8001a56:	f505 6580 	add.w	r5, r5, #1024	@ 0x400
 8001a5a:	42a8      	cmp	r0, r5
 8001a5c:	d003      	beq.n	8001a66 <TIM_OC6_SetConfig+0x4e>
 8001a5e:	f505 6580 	add.w	r5, r5, #1024	@ 0x400
 8001a62:	42a8      	cmp	r0, r5
 8001a64:	d104      	bne.n	8001a70 <TIM_OC6_SetConfig+0x58>
 8001a66:	694d      	ldr	r5, [r1, #20]
 8001a68:	f424 2480 	bic.w	r4, r4, #262144	@ 0x40000
 8001a6c:	ea44 2485 	orr.w	r4, r4, r5, lsl #10
 8001a70:	6044      	str	r4, [r0, #4]
 8001a72:	6502      	str	r2, [r0, #80]	@ 0x50
 8001a74:	684a      	ldr	r2, [r1, #4]
 8001a76:	64c2      	str	r2, [r0, #76]	@ 0x4c
 8001a78:	6203      	str	r3, [r0, #32]
 8001a7a:	bd30      	pop	{r4, r5, pc}
 8001a7c:	40012c00 	.word	0x40012c00

08001a80 <HAL_TIM_PWM_MspInit>:
 8001a80:	4770      	bx	lr
	...

08001a84 <TIM_Base_SetConfig>:
 8001a84:	4a25      	ldr	r2, [pc, #148]	@ (8001b1c <TIM_Base_SetConfig+0x98>)
 8001a86:	6803      	ldr	r3, [r0, #0]
 8001a88:	4290      	cmp	r0, r2
 8001a8a:	d00e      	beq.n	8001aaa <TIM_Base_SetConfig+0x26>
 8001a8c:	f1b0 4f80 	cmp.w	r0, #1073741824	@ 0x40000000
 8001a90:	d00b      	beq.n	8001aaa <TIM_Base_SetConfig+0x26>
 8001a92:	f5a2 3294 	sub.w	r2, r2, #75776	@ 0x12800
 8001a96:	4290      	cmp	r0, r2
 8001a98:	d007      	beq.n	8001aaa <TIM_Base_SetConfig+0x26>
 8001a9a:	f502 6280 	add.w	r2, r2, #1024	@ 0x400
 8001a9e:	4290      	cmp	r0, r2
 8001aa0:	d003      	beq.n	8001aaa <TIM_Base_SetConfig+0x26>
 8001aa2:	f502 3296 	add.w	r2, r2, #76800	@ 0x12c00
 8001aa6:	4290      	cmp	r0, r2
 8001aa8:	d108      	bne.n	8001abc <TIM_Base_SetConfig+0x38>
 8001aaa:	684a      	ldr	r2, [r1, #4]
 8001aac:	f023 0370 	bic.w	r3, r3, #112	@ 0x70
 8001ab0:	4313      	orrs	r3, r2
 8001ab2:	68ca      	ldr	r2, [r1, #12]
 8001ab4:	f423 7340 	bic.w	r3, r3, #768	@ 0x300
 8001ab8:	4313      	orrs	r3, r2
 8001aba:	e00a      	b.n	8001ad2 <TIM_Base_SetConfig+0x4e>
 8001abc:	4a18      	ldr	r2, [pc, #96]	@ (8001b20 <TIM_Base_SetConfig+0x9c>)
 8001abe:	4290      	cmp	r0, r2
 8001ac0:	d0f7      	beq.n	8001ab2 <TIM_Base_SetConfig+0x2e>
 8001ac2:	f502 6280 	add.w	r2, r2, #1024	@ 0x400
 8001ac6:	4290      	cmp	r0, r2
 8001ac8:	d0f3      	beq.n	8001ab2 <TIM_Base_SetConfig+0x2e>
 8001aca:	f502 6280 	add.w	r2, r2, #1024	@ 0x400
 8001ace:	4290      	cmp	r0, r2
 8001ad0:	d0ef      	beq.n	8001ab2 <TIM_Base_SetConfig+0x2e>
 8001ad2:	694a      	ldr	r2, [r1, #20]
 8001ad4:	f023 0380 	bic.w	r3, r3, #128	@ 0x80
 8001ad8:	4313      	orrs	r3, r2
 8001ada:	688a      	ldr	r2, [r1, #8]
 8001adc:	62c2      	str	r2, [r0, #44]	@ 0x2c
 8001ade:	680a      	ldr	r2, [r1, #0]
 8001ae0:	6282      	str	r2, [r0, #40]	@ 0x28
 8001ae2:	4a0e      	ldr	r2, [pc, #56]	@ (8001b1c <TIM_Base_SetConfig+0x98>)
 8001ae4:	4290      	cmp	r0, r2
 8001ae6:	d00f      	beq.n	8001b08 <TIM_Base_SetConfig+0x84>
 8001ae8:	f502 6200 	add.w	r2, r2, #2048	@ 0x800
 8001aec:	4290      	cmp	r0, r2
 8001aee:	d00b      	beq.n	8001b08 <TIM_Base_SetConfig+0x84>
 8001af0:	f502 6240 	add.w	r2, r2, #3072	@ 0xc00
 8001af4:	4290      	cmp	r0, r2
 8001af6:	d007      	beq.n	8001b08 <TIM_Base_SetConfig+0x84>
 8001af8:	f502 6280 	add.w	r2, r2, #1024	@ 0x400
 8001afc:	4290      	cmp	r0, r2
 8001afe:	d003      	beq.n	8001b08 <TIM_Base_SetConfig+0x84>
 8001b00:	f502 6280 	add.w	r2, r2, #1024	@ 0x400
 8001b04:	4290      	cmp	r0, r2
 8001b06:	d101      	bne.n	8001b0c <TIM_Base_SetConfig+0x88>
 8001b08:	690a      	ldr	r2, [r1, #16]
 8001b0a:	6302      	str	r2, [r0, #48]	@ 0x30
 8001b0c:	6802      	ldr	r2, [r0, #0]
 8001b0e:	f042 0204 	orr.w	r2, r2, #4
 8001b12:	6002      	str	r2, [r0, #0]
 8001b14:	2201      	movs	r2, #1
 8001b16:	6142      	str	r2, [r0, #20]
 8001b18:	6003      	str	r3, [r0, #0]
 8001b1a:	4770      	bx	lr
 8001b1c:	40012c00 	.word	0x40012c00
 8001b20:	40014000 	.word	0x40014000

08001b24 <HAL_TIM_Base_Init>:
 8001b24:	b510      	push	{r4, lr}
 8001b26:	4604      	mov	r4, r0
 8001b28:	b350      	cbz	r0, 8001b80 <HAL_TIM_Base_Init+0x5c>
 8001b2a:	f890 303d 	ldrb.w	r3, [r0, #61]	@ 0x3d
 8001b2e:	f003 02ff 	and.w	r2, r3, #255	@ 0xff
 8001b32:	b91b      	cbnz	r3, 8001b3c <HAL_TIM_Base_Init+0x18>
 8001b34:	f880 203c 	strb.w	r2, [r0, #60]	@ 0x3c
 8001b38:	f7fe fee8 	bl	800090c <HAL_TIM_Base_MspInit>
 8001b3c:	2302      	movs	r3, #2
 8001b3e:	6820      	ldr	r0, [r4, #0]
 8001b40:	f884 303d 	strb.w	r3, [r4, #61]	@ 0x3d
 8001b44:	1d21      	adds	r1, r4, #4
 8001b46:	f7ff ff9d 	bl	8001a84 <TIM_Base_SetConfig>
 8001b4a:	2301      	movs	r3, #1
 8001b4c:	f884 3048 	strb.w	r3, [r4, #72]	@ 0x48
 8001b50:	2000      	movs	r0, #0
 8001b52:	f884 303e 	strb.w	r3, [r4, #62]	@ 0x3e
 8001b56:	f884 303f 	strb.w	r3, [r4, #63]	@ 0x3f
 8001b5a:	f884 3040 	strb.w	r3, [r4, #64]	@ 0x40
 8001b5e:	f884 3041 	strb.w	r3, [r4, #65]	@ 0x41
 8001b62:	f884 3042 	strb.w	r3, [r4, #66]	@ 0x42
 8001b66:	f884 3043 	strb.w	r3, [r4, #67]	@ 0x43
 8001b6a:	f884 3044 	strb.w	r3, [r4, #68]	@ 0x44
 8001b6e:	f884 3045 	strb.w	r3, [r4, #69]	@ 0x45
 8001b72:	f884 3046 	strb.w	r3, [r4, #70]	@ 0x46
 8001b76:	f884 3047 	strb.w	r3, [r4, #71]	@ 0x47
 8001b7a:	f884 303d 	strb.w	r3, [r4, #61]	@ 0x3d
 8001b7e:	bd10      	pop	{r4, pc}
 8001b80:	2001      	movs	r0, #1
 8001b82:	e7fc      	b.n	8001b7e <HAL_TIM_Base_Init+0x5a>

08001b84 <HAL_TIM_PWM_Init>:
 8001b84:	b510      	push	{r4, lr}
 8001b86:	4604      	mov	r4, r0
 8001b88:	b350      	cbz	r0, 8001be0 <HAL_TIM_PWM_Init+0x5c>
 8001b8a:	f890 303d 	ldrb.w	r3, [r0, #61]	@ 0x3d
 8001b8e:	f003 02ff 	and.w	r2, r3, #255	@ 0xff
 8001b92:	b91b      	cbnz	r3, 8001b9c <HAL_TIM_PWM_Init+0x18>
 8001b94:	f880 203c 	strb.w	r2, [r0, #60]	@ 0x3c
 8001b98:	f7ff ff72 	bl	8001a80 <HAL_TIM_PWM_MspInit>
 8001b9c:	2302      	movs	r3, #2
 8001b9e:	6820      	ldr	r0, [r4, #0]
 8001ba0:	f884 303d 	strb.w	r3, [r4, #61]	@ 0x3d
 8001ba4:	1d21      	adds	r1, r4, #4
 8001ba6:	f7ff ff6d 	bl	8001a84 <TIM_Base_SetConfig>
 8001baa:	2301      	movs	r3, #1
 8001bac:	f884 3048 	strb.w	r3, [r4, #72]	@ 0x48
 8001bb0:	2000      	movs	r0, #0
 8001bb2:	f884 303e 	strb.w	r3, [r4, #62]	@ 0x3e
 8001bb6:	f884 303f 	strb.w	r3, [r4, #63]	@ 0x3f
 8001bba:	f884 3040 	strb.w	r3, [r4, #64]	@ 0x40
 8001bbe:	f884 3041 	strb.w	r3, [r4, #65]	@ 0x41
 8001bc2:	f884 3042 	strb.w	r3, [r4, #66]	@ 0x42
 8001bc6:	f884 3043 	strb.w	r3, [r4, #67]	@ 0x43
 8001bca:	f884 3044 	strb.w	r3, [r4, #68]	@ 0x44
 8001bce:	f884 3045 	strb.w	r3, [r4, #69]	@ 0x45
 8001bd2:	f884 3046 	strb.w	r3, [r4, #70]	@ 0x46
 8001bd6:	f884 3047 	strb.w	r3, [r4, #71]	@ 0x47
 8001bda:	f884 303d 	strb.w	r3, [r4, #61]	@ 0x3d
 8001bde:	bd10      	pop	{r4, pc}
 8001be0:	2001      	movs	r0, #1
 8001be2:	e7fc      	b.n	8001bde <HAL_TIM_PWM_Init+0x5a>

08001be4 <TIM_OC2_SetConfig>:
 8001be4:	6a03      	ldr	r3, [r0, #32]
 8001be6:	6a02      	ldr	r2, [r0, #32]
 8001be8:	f022 0210 	bic.w	r2, r2, #16
 8001bec:	b570      	push	{r4, r5, r6, lr}
 8001bee:	6202      	str	r2, [r0, #32]
 8001bf0:	6844      	ldr	r4, [r0, #4]
 8001bf2:	6982      	ldr	r2, [r0, #24]
 8001bf4:	680d      	ldr	r5, [r1, #0]
 8001bf6:	f022 7280 	bic.w	r2, r2, #16777216	@ 0x1000000
 8001bfa:	f422 42e6 	bic.w	r2, r2, #29440	@ 0x7300
 8001bfe:	ea42 2205 	orr.w	r2, r2, r5, lsl #8
 8001c02:	688d      	ldr	r5, [r1, #8]
 8001c04:	f023 0320 	bic.w	r3, r3, #32
 8001c08:	ea43 1305 	orr.w	r3, r3, r5, lsl #4
 8001c0c:	4d13      	ldr	r5, [pc, #76]	@ (8001c5c <TIM_OC2_SetConfig+0x78>)
 8001c0e:	42a8      	cmp	r0, r5
 8001c10:	d00f      	beq.n	8001c32 <TIM_OC2_SetConfig+0x4e>
 8001c12:	f505 6500 	add.w	r5, r5, #2048	@ 0x800
 8001c16:	42a8      	cmp	r0, r5
 8001c18:	d00b      	beq.n	8001c32 <TIM_OC2_SetConfig+0x4e>
 8001c1a:	f505 6540 	add.w	r5, r5, #3072	@ 0xc00
 8001c1e:	42a8      	cmp	r0, r5
 8001c20:	d10f      	bne.n	8001c42 <TIM_OC2_SetConfig+0x5e>
 8001c22:	f424 6540 	bic.w	r5, r4, #3072	@ 0xc00
 8001c26:	e9d1 4605 	ldrd	r4, r6, [r1, #20]
 8001c2a:	4334      	orrs	r4, r6
 8001c2c:	ea45 0484 	orr.w	r4, r5, r4, lsl #2
 8001c30:	e00e      	b.n	8001c50 <TIM_OC2_SetConfig+0x6c>
 8001c32:	68cd      	ldr	r5, [r1, #12]
 8001c34:	f023 0380 	bic.w	r3, r3, #128	@ 0x80
 8001c38:	ea43 1305 	orr.w	r3, r3, r5, lsl #4
 8001c3c:	f023 0340 	bic.w	r3, r3, #64	@ 0x40
 8001c40:	e7ef      	b.n	8001c22 <TIM_OC2_SetConfig+0x3e>
 8001c42:	4d07      	ldr	r5, [pc, #28]	@ (8001c60 <TIM_OC2_SetConfig+0x7c>)
 8001c44:	42a8      	cmp	r0, r5
 8001c46:	d0ec      	beq.n	8001c22 <TIM_OC2_SetConfig+0x3e>
 8001c48:	f505 6580 	add.w	r5, r5, #1024	@ 0x400
 8001c4c:	42a8      	cmp	r0, r5
 8001c4e:	d0e8      	beq.n	8001c22 <TIM_OC2_SetConfig+0x3e>
 8001c50:	6044      	str	r4, [r0, #4]
 8001c52:	6182      	str	r2, [r0, #24]
 8001c54:	684a      	ldr	r2, [r1, #4]
 8001c56:	6382      	str	r2, [r0, #56]	@ 0x38
 8001c58:	6203      	str	r3, [r0, #32]
 8001c5a:	bd70      	pop	{r4, r5, r6, pc}
 8001c5c:	40012c00 	.word	0x40012c00
 8001c60:	40014400 	.word	0x40014400

08001c64 <HAL_TIM_PWM_ConfigChannel>:
 8001c64:	b538      	push	{r3, r4, r5, lr}
 8001c66:	f890 303c 	ldrb.w	r3, [r0, #60]	@ 0x3c
 8001c6a:	2b01      	cmp	r3, #1
 8001c6c:	4604      	mov	r4, r0
 8001c6e:	d073      	beq.n	8001d58 <HAL_TIM_PWM_ConfigChannel+0xf4>
 8001c70:	2001      	movs	r0, #1
 8001c72:	2a0c      	cmp	r2, #12
 8001c74:	f884 003c 	strb.w	r0, [r4, #60]	@ 0x3c
 8001c78:	d04e      	beq.n	8001d18 <HAL_TIM_PWM_ConfigChannel+0xb4>
 8001c7a:	d808      	bhi.n	8001c8e <HAL_TIM_PWM_ConfigChannel+0x2a>
 8001c7c:	2a04      	cmp	r2, #4
 8001c7e:	d02b      	beq.n	8001cd8 <HAL_TIM_PWM_ConfigChannel+0x74>
 8001c80:	2a08      	cmp	r2, #8
 8001c82:	d039      	beq.n	8001cf8 <HAL_TIM_PWM_ConfigChannel+0x94>
 8001c84:	b1ba      	cbz	r2, 8001cb6 <HAL_TIM_PWM_ConfigChannel+0x52>
 8001c86:	2300      	movs	r3, #0
 8001c88:	f884 303c 	strb.w	r3, [r4, #60]	@ 0x3c
 8001c8c:	bd38      	pop	{r3, r4, r5, pc}
 8001c8e:	2a10      	cmp	r2, #16
 8001c90:	d052      	beq.n	8001d38 <HAL_TIM_PWM_ConfigChannel+0xd4>
 8001c92:	2a14      	cmp	r2, #20
 8001c94:	d1f7      	bne.n	8001c86 <HAL_TIM_PWM_ConfigChannel+0x22>
 8001c96:	6820      	ldr	r0, [r4, #0]
 8001c98:	f7ff febe 	bl	8001a18 <TIM_OC6_SetConfig>
 8001c9c:	6d03      	ldr	r3, [r0, #80]	@ 0x50
 8001c9e:	690a      	ldr	r2, [r1, #16]
 8001ca0:	f443 6300 	orr.w	r3, r3, #2048	@ 0x800
 8001ca4:	6503      	str	r3, [r0, #80]	@ 0x50
 8001ca6:	6d03      	ldr	r3, [r0, #80]	@ 0x50
 8001ca8:	f423 6380 	bic.w	r3, r3, #1024	@ 0x400
 8001cac:	6503      	str	r3, [r0, #80]	@ 0x50
 8001cae:	6d03      	ldr	r3, [r0, #80]	@ 0x50
 8001cb0:	ea43 2302 	orr.w	r3, r3, r2, lsl #8
 8001cb4:	e04e      	b.n	8001d54 <HAL_TIM_PWM_ConfigChannel+0xf0>
 8001cb6:	6820      	ldr	r0, [r4, #0]
 8001cb8:	f7ff fdc0 	bl	800183c <TIM_OC1_SetConfig>
 8001cbc:	6983      	ldr	r3, [r0, #24]
 8001cbe:	690a      	ldr	r2, [r1, #16]
 8001cc0:	f043 0308 	orr.w	r3, r3, #8
 8001cc4:	6183      	str	r3, [r0, #24]
 8001cc6:	6983      	ldr	r3, [r0, #24]
 8001cc8:	f023 0304 	bic.w	r3, r3, #4
 8001ccc:	6183      	str	r3, [r0, #24]
 8001cce:	6983      	ldr	r3, [r0, #24]
 8001cd0:	4313      	orrs	r3, r2
 8001cd2:	6183      	str	r3, [r0, #24]
 8001cd4:	2000      	movs	r0, #0
 8001cd6:	e7d6      	b.n	8001c86 <HAL_TIM_PWM_ConfigChannel+0x22>
 8001cd8:	6820      	ldr	r0, [r4, #0]
 8001cda:	f7ff ff83 	bl	8001be4 <TIM_OC2_SetConfig>
 8001cde:	6983      	ldr	r3, [r0, #24]
 8001ce0:	690a      	ldr	r2, [r1, #16]
 8001ce2:	f443 6300 	orr.w	r3, r3, #2048	@ 0x800
 8001ce6:	6183      	str	r3, [r0, #24]
 8001ce8:	6983      	ldr	r3, [r0, #24]
 8001cea:	f423 6380 	bic.w	r3, r3, #1024	@ 0x400
 8001cee:	6183      	str	r3, [r0, #24]
 8001cf0:	6983      	ldr	r3, [r0, #24]
 8001cf2:	ea43 2302 	orr.w	r3, r3, r2, lsl #8
 8001cf6:	e7ec      	b.n	8001cd2 <HAL_TIM_PWM_ConfigChannel+0x6e>
 8001cf8:	6820      	ldr	r0, [r4, #0]
 8001cfa:	f7ff fdd9 	bl	80018b0 <TIM_OC3_SetConfig>
 8001cfe:	69c3      	ldr	r3, [r0, #28]
 8001d00:	690a      	ldr	r2, [r1, #16]
 8001d02:	f043 0308 	orr.w	r3, r3, #8
 8001d06:	61c3      	str	r3, [r0, #28]
 8001d08:	69c3      	ldr	r3, [r0, #28]
 8001d0a:	f023 0304 	bic.w	r3, r3, #4
 8001d0e:	61c3      	str	r3, [r0, #28]
 8001d10:	69c3      	ldr	r3, [r0, #28]
 8001d12:	4313      	orrs	r3, r2
 8001d14:	61c3      	str	r3, [r0, #28]
 8001d16:	e7dd      	b.n	8001cd4 <HAL_TIM_PWM_ConfigChannel+0x70>
 8001d18:	6820      	ldr	r0, [r4, #0]
 8001d1a:	f7ff fe09 	bl	8001930 <TIM_OC4_SetConfig>
 8001d1e:	69c3      	ldr	r3, [r0, #28]
 8001d20:	690a      	ldr	r2, [r1, #16]
 8001d22:	f443 6300 	orr.w	r3, r3, #2048	@ 0x800
 8001d26:	61c3      	str	r3, [r0, #28]
 8001d28:	69c3      	ldr	r3, [r0, #28]
 8001d2a:	f423 6380 	bic.w	r3, r3, #1024	@ 0x400
 8001d2e:	61c3      	str	r3, [r0, #28]
 8001d30:	69c3      	ldr	r3, [r0, #28]
 8001d32:	ea43 2302 	orr.w	r3, r3, r2, lsl #8
 8001d36:	e7ed      	b.n	8001d14 <HAL_TIM_PWM_ConfigChannel+0xb0>
 8001d38:	6820      	ldr	r0, [r4, #0]
 8001d3a:	f7ff fe39 	bl	80019b0 <TIM_OC5_SetConfig>
 8001d3e:	6d03      	ldr	r3, [r0, #80]	@ 0x50
 8001d40:	690a      	ldr	r2, [r1, #16]
 8001d42:	f043 0308 	orr.w	r3, r3, #8
 8001d46:	6503      	str	r3, [r0, #80]	@ 0x50
 8001d48:	6d03      	ldr	r3, [r0, #80]	@ 0x50
 8001d4a:	f023 0304 	bic.w	r3, r3, #4
 8001d4e:	6503      	str	r3, [r0, #80]	@ 0x50
 8001d50:	6d03      	ldr	r3, [r0, #80]	@ 0x50
 8001d52:	4313      	orrs	r3, r2
 8001d54:	6503      	str	r3, [r0, #80]	@ 0x50
 8001d56:	e7bd      	b.n	8001cd4 <HAL_TIM_PWM_ConfigChannel+0x70>
 8001d58:	2002      	movs	r0, #2
 8001d5a:	e797      	b.n	8001c8c <HAL_TIM_PWM_ConfigChannel+0x28>

08001d5c <TIM_CCxChannelCmd>:
 8001d5c:	6a03      	ldr	r3, [r0, #32]
 8001d5e:	b510      	push	{r4, lr}
 8001d60:	f001 011f 	and.w	r1, r1, #31
 8001d64:	2401      	movs	r4, #1
 8001d66:	408c      	lsls	r4, r1
 8001d68:	ea23 0304 	bic.w	r3, r3, r4
 8001d6c:	6203      	str	r3, [r0, #32]
 8001d6e:	6a03      	ldr	r3, [r0, #32]
 8001d70:	408a      	lsls	r2, r1
 8001d72:	431a      	orrs	r2, r3
 8001d74:	6202      	str	r2, [r0, #32]
 8001d76:	bd10      	pop	{r4, pc}

08001d78 <HAL_TIM_OC_Start>:
 8001d78:	2908      	cmp	r1, #8
 8001d7a:	b508      	push	{r3, lr}
 8001d7c:	d018      	beq.n	8001db0 <HAL_TIM_OC_Start+0x38>
 8001d7e:	d805      	bhi.n	8001d8c <HAL_TIM_OC_Start+0x14>
 8001d80:	b159      	cbz	r1, 8001d9a <HAL_TIM_OC_Start+0x22>
 8001d82:	2904      	cmp	r1, #4
 8001d84:	d011      	beq.n	8001daa <HAL_TIM_OC_Start+0x32>
 8001d86:	f890 3043 	ldrb.w	r3, [r0, #67]	@ 0x43
 8001d8a:	e008      	b.n	8001d9e <HAL_TIM_OC_Start+0x26>
 8001d8c:	290c      	cmp	r1, #12
 8001d8e:	d012      	beq.n	8001db6 <HAL_TIM_OC_Start+0x3e>
 8001d90:	2910      	cmp	r1, #16
 8001d92:	d1f8      	bne.n	8001d86 <HAL_TIM_OC_Start+0xe>
 8001d94:	f890 3042 	ldrb.w	r3, [r0, #66]	@ 0x42
 8001d98:	e001      	b.n	8001d9e <HAL_TIM_OC_Start+0x26>
 8001d9a:	f890 303e 	ldrb.w	r3, [r0, #62]	@ 0x3e
 8001d9e:	3b01      	subs	r3, #1
 8001da0:	bf18      	it	ne
 8001da2:	2301      	movne	r3, #1
 8001da4:	b153      	cbz	r3, 8001dbc <HAL_TIM_OC_Start+0x44>
 8001da6:	2001      	movs	r0, #1
 8001da8:	e045      	b.n	8001e36 <HAL_TIM_OC_Start+0xbe>
 8001daa:	f890 303f 	ldrb.w	r3, [r0, #63]	@ 0x3f
 8001dae:	e7f6      	b.n	8001d9e <HAL_TIM_OC_Start+0x26>
 8001db0:	f890 3040 	ldrb.w	r3, [r0, #64]	@ 0x40
 8001db4:	e7f3      	b.n	8001d9e <HAL_TIM_OC_Start+0x26>
 8001db6:	f890 3041 	ldrb.w	r3, [r0, #65]	@ 0x41
 8001dba:	e7f0      	b.n	8001d9e <HAL_TIM_OC_Start+0x26>
 8001dbc:	2908      	cmp	r1, #8
 8001dbe:	f04f 0302 	mov.w	r3, #2
 8001dc2:	d03c      	beq.n	8001e3e <HAL_TIM_OC_Start+0xc6>
 8001dc4:	d806      	bhi.n	8001dd4 <HAL_TIM_OC_Start+0x5c>
 8001dc6:	b161      	cbz	r1, 8001de2 <HAL_TIM_OC_Start+0x6a>
 8001dc8:	2904      	cmp	r1, #4
 8001dca:	d035      	beq.n	8001e38 <HAL_TIM_OC_Start+0xc0>
 8001dcc:	2302      	movs	r3, #2
 8001dce:	f880 3043 	strb.w	r3, [r0, #67]	@ 0x43
 8001dd2:	e008      	b.n	8001de6 <HAL_TIM_OC_Start+0x6e>
 8001dd4:	290c      	cmp	r1, #12
 8001dd6:	d035      	beq.n	8001e44 <HAL_TIM_OC_Start+0xcc>
 8001dd8:	2910      	cmp	r1, #16
 8001dda:	d1f7      	bne.n	8001dcc <HAL_TIM_OC_Start+0x54>
 8001ddc:	f880 3042 	strb.w	r3, [r0, #66]	@ 0x42
 8001de0:	e001      	b.n	8001de6 <HAL_TIM_OC_Start+0x6e>
 8001de2:	f880 303e 	strb.w	r3, [r0, #62]	@ 0x3e
 8001de6:	6800      	ldr	r0, [r0, #0]
 8001de8:	2201      	movs	r2, #1
 8001dea:	f7ff ffb7 	bl	8001d5c <TIM_CCxChannelCmd>
 8001dee:	4b21      	ldr	r3, [pc, #132]	@ (8001e74 <HAL_TIM_OC_Start+0xfc>)
 8001df0:	4298      	cmp	r0, r3
 8001df2:	d00f      	beq.n	8001e14 <HAL_TIM_OC_Start+0x9c>
 8001df4:	f503 6300 	add.w	r3, r3, #2048	@ 0x800
 8001df8:	4298      	cmp	r0, r3
 8001dfa:	d00b      	beq.n	8001e14 <HAL_TIM_OC_Start+0x9c>
 8001dfc:	f503 6340 	add.w	r3, r3, #3072	@ 0xc00
 8001e00:	4298      	cmp	r0, r3
 8001e02:	d007      	beq.n	8001e14 <HAL_TIM_OC_Start+0x9c>
 8001e04:	f503 6380 	add.w	r3, r3, #1024	@ 0x400
 8001e08:	4298      	cmp	r0, r3
 8001e0a:	d003      	beq.n	8001e14 <HAL_TIM_OC_Start+0x9c>
 8001e0c:	f503 6380 	add.w	r3, r3, #1024	@ 0x400
 8001e10:	4298      	cmp	r0, r3
 8001e12:	d11a      	bne.n	8001e4a <HAL_TIM_OC_Start+0xd2>
 8001e14:	6c43      	ldr	r3, [r0, #68]	@ 0x44
 8001e16:	f443 4300 	orr.w	r3, r3, #32768	@ 0x8000
 8001e1a:	6443      	str	r3, [r0, #68]	@ 0x44
 8001e1c:	4b15      	ldr	r3, [pc, #84]	@ (8001e74 <HAL_TIM_OC_Start+0xfc>)
 8001e1e:	4298      	cmp	r0, r3
 8001e20:	d003      	beq.n	8001e2a <HAL_TIM_OC_Start+0xb2>
 8001e22:	f503 6300 	add.w	r3, r3, #2048	@ 0x800
 8001e26:	4298      	cmp	r0, r3
 8001e28:	d11e      	bne.n	8001e68 <HAL_TIM_OC_Start+0xf0>
 8001e2a:	6882      	ldr	r2, [r0, #8]
 8001e2c:	4b12      	ldr	r3, [pc, #72]	@ (8001e78 <HAL_TIM_OC_Start+0x100>)
 8001e2e:	4013      	ands	r3, r2
 8001e30:	2b06      	cmp	r3, #6
 8001e32:	d11b      	bne.n	8001e6c <HAL_TIM_OC_Start+0xf4>
 8001e34:	2000      	movs	r0, #0
 8001e36:	bd08      	pop	{r3, pc}
 8001e38:	f880 303f 	strb.w	r3, [r0, #63]	@ 0x3f
 8001e3c:	e7d3      	b.n	8001de6 <HAL_TIM_OC_Start+0x6e>
 8001e3e:	f880 3040 	strb.w	r3, [r0, #64]	@ 0x40
 8001e42:	e7d0      	b.n	8001de6 <HAL_TIM_OC_Start+0x6e>
 8001e44:	f880 3041 	strb.w	r3, [r0, #65]	@ 0x41
 8001e48:	e7cd      	b.n	8001de6 <HAL_TIM_OC_Start+0x6e>
 8001e4a:	f1b0 4f80 	cmp.w	r0, #1073741824	@ 0x40000000
 8001e4e:	d0ec      	beq.n	8001e2a <HAL_TIM_OC_Start+0xb2>
 8001e50:	4b0a      	ldr	r3, [pc, #40]	@ (8001e7c <HAL_TIM_OC_Start+0x104>)
 8001e52:	4298      	cmp	r0, r3
 8001e54:	d0e9      	beq.n	8001e2a <HAL_TIM_OC_Start+0xb2>
 8001e56:	f503 6380 	add.w	r3, r3, #1024	@ 0x400
 8001e5a:	4298      	cmp	r0, r3
 8001e5c:	d0e5      	beq.n	8001e2a <HAL_TIM_OC_Start+0xb2>
 8001e5e:	6803      	ldr	r3, [r0, #0]
 8001e60:	f043 0301 	orr.w	r3, r3, #1
 8001e64:	6003      	str	r3, [r0, #0]
 8001e66:	e7e5      	b.n	8001e34 <HAL_TIM_OC_Start+0xbc>
 8001e68:	4b05      	ldr	r3, [pc, #20]	@ (8001e80 <HAL_TIM_OC_Start+0x108>)
 8001e6a:	e7f6      	b.n	8001e5a <HAL_TIM_OC_Start+0xe2>
 8001e6c:	f5b3 3f80 	cmp.w	r3, #65536	@ 0x10000
 8001e70:	d1f5      	bne.n	8001e5e <HAL_TIM_OC_Start+0xe6>
 8001e72:	e7df      	b.n	8001e34 <HAL_TIM_OC_Start+0xbc>
 8001e74:	40012c00 	.word	0x40012c00
 8001e78:	00010007 	.word	0x00010007
 8001e7c:	40000400 	.word	0x40000400
 8001e80:	40014000 	.word	0x40014000

08001e84 <HAL_TIM_PWM_Start>:
 8001e84:	f7ff bf78 	b.w	8001d78 <HAL_TIM_OC_Start>

08001e88 <HAL_TIMEx_ConfigBreakDeadTime>:
 8001e88:	b510      	push	{r4, lr}
 8001e8a:	f890 303c 	ldrb.w	r3, [r0, #60]	@ 0x3c
 8001e8e:	2b01      	cmp	r3, #1
 8001e90:	4602      	mov	r2, r0
 8001e92:	d03f      	beq.n	8001f14 <HAL_TIMEx_ConfigBreakDeadTime+0x8c>
 8001e94:	68cb      	ldr	r3, [r1, #12]
 8001e96:	6888      	ldr	r0, [r1, #8]
 8001e98:	4c1f      	ldr	r4, [pc, #124]	@ (8001f18 <HAL_TIMEx_ConfigBreakDeadTime+0x90>)
 8001e9a:	f423 7340 	bic.w	r3, r3, #768	@ 0x300
 8001e9e:	4303      	orrs	r3, r0
 8001ea0:	6848      	ldr	r0, [r1, #4]
 8001ea2:	f423 6380 	bic.w	r3, r3, #1024	@ 0x400
 8001ea6:	4303      	orrs	r3, r0
 8001ea8:	6808      	ldr	r0, [r1, #0]
 8001eaa:	f423 6300 	bic.w	r3, r3, #2048	@ 0x800
 8001eae:	4303      	orrs	r3, r0
 8001eb0:	6908      	ldr	r0, [r1, #16]
 8001eb2:	f423 5380 	bic.w	r3, r3, #4096	@ 0x1000
 8001eb6:	4303      	orrs	r3, r0
 8001eb8:	6948      	ldr	r0, [r1, #20]
 8001eba:	f423 5300 	bic.w	r3, r3, #8192	@ 0x2000
 8001ebe:	4303      	orrs	r3, r0
 8001ec0:	6b08      	ldr	r0, [r1, #48]	@ 0x30
 8001ec2:	f423 4380 	bic.w	r3, r3, #16384	@ 0x4000
 8001ec6:	4303      	orrs	r3, r0
 8001ec8:	6988      	ldr	r0, [r1, #24]
 8001eca:	f423 2370 	bic.w	r3, r3, #983040	@ 0xf0000
 8001ece:	ea43 4300 	orr.w	r3, r3, r0, lsl #16
 8001ed2:	69c8      	ldr	r0, [r1, #28]
 8001ed4:	f023 5380 	bic.w	r3, r3, #268435456	@ 0x10000000
 8001ed8:	4303      	orrs	r3, r0
 8001eda:	6810      	ldr	r0, [r2, #0]
 8001edc:	42a0      	cmp	r0, r4
 8001ede:	d003      	beq.n	8001ee8 <HAL_TIMEx_ConfigBreakDeadTime+0x60>
 8001ee0:	f504 6400 	add.w	r4, r4, #2048	@ 0x800
 8001ee4:	42a0      	cmp	r0, r4
 8001ee6:	d110      	bne.n	8001f0a <HAL_TIMEx_ConfigBreakDeadTime+0x82>
 8001ee8:	6a8c      	ldr	r4, [r1, #40]	@ 0x28
 8001eea:	f423 0370 	bic.w	r3, r3, #15728640	@ 0xf00000
 8001eee:	ea43 5304 	orr.w	r3, r3, r4, lsl #20
 8001ef2:	6a0c      	ldr	r4, [r1, #32]
 8001ef4:	f023 7380 	bic.w	r3, r3, #16777216	@ 0x1000000
 8001ef8:	4323      	orrs	r3, r4
 8001efa:	6a4c      	ldr	r4, [r1, #36]	@ 0x24
 8001efc:	6ac9      	ldr	r1, [r1, #44]	@ 0x2c
 8001efe:	f023 7300 	bic.w	r3, r3, #33554432	@ 0x2000000
 8001f02:	4323      	orrs	r3, r4
 8001f04:	f023 5300 	bic.w	r3, r3, #536870912	@ 0x20000000
 8001f08:	430b      	orrs	r3, r1
 8001f0a:	6443      	str	r3, [r0, #68]	@ 0x44
 8001f0c:	2000      	movs	r0, #0
 8001f0e:	f882 003c 	strb.w	r0, [r2, #60]	@ 0x3c
 8001f12:	bd10      	pop	{r4, pc}
 8001f14:	2002      	movs	r0, #2
 8001f16:	e7fc      	b.n	8001f12 <HAL_TIMEx_ConfigBreakDeadTime+0x8a>
 8001f18:	40012c00 	.word	0x40012c00

08001f1c <memset>:
 8001f1c:	4402      	add	r2, r0
 8001f1e:	4603      	mov	r3, r0
 8001f20:	4293      	cmp	r3, r2
 8001f22:	d100      	bne.n	8001f26 <memset+0xa>
 8001f24:	4770      	bx	lr
 8001f26:	f803 1b01 	strb.w	r1, [r3], #1
 8001f2a:	e7f9      	b.n	8001f20 <memset+0x4>

08001f2c <__libc_init_array>:
 8001f2c:	b570      	push	{r4, r5, r6, lr}
 8001f2e:	4d0d      	ldr	r5, [pc, #52]	@ (8001f64 <__libc_init_array+0x38>)
 8001f30:	4c0d      	ldr	r4, [pc, #52]	@ (8001f68 <__libc_init_array+0x3c>)
 8001f32:	1b64      	subs	r4, r4, r5
 8001f34:	10a4      	asrs	r4, r4, #2
 8001f36:	2600      	movs	r6, #0
 8001f38:	42a6      	cmp	r6, r4
 8001f3a:	d109      	bne.n	8001f50 <__libc_init_array+0x24>
 8001f3c:	4d0b      	ldr	r5, [pc, #44]	@ (8001f6c <__libc_init_array+0x40>)
 8001f3e:	4c0c      	ldr	r4, [pc, #48]	@ (8001f70 <__libc_init_array+0x44>)
 8001f40:	f000 f818 	bl	8001f74 <_init>
 8001f44:	1b64      	subs	r4, r4, r5
 8001f46:	10a4      	asrs	r4, r4, #2
 8001f48:	2600      	movs	r6, #0
 8001f4a:	42a6      	cmp	r6, r4
 8001f4c:	d105      	bne.n	8001f5a <__libc_init_array+0x2e>
 8001f4e:	bd70      	pop	{r4, r5, r6, pc}
 8001f50:	f855 3b04 	ldr.w	r3, [r5], #4
 8001f54:	4798      	blx	r3
 8001f56:	3601      	adds	r6, #1
 8001f58:	e7ee      	b.n	8001f38 <__libc_init_array+0xc>
 8001f5a:	f855 3b04 	ldr.w	r3, [r5], #4
 8001f5e:	4798      	blx	r3
 8001f60:	3601      	adds	r6, #1
 8001f62:	e7f2      	b.n	8001f4a <__libc_init_array+0x1e>
 8001f64:	08001f9c 	.word	0x08001f9c
 8001f68:	08001f9c 	.word	0x08001f9c
 8001f6c:	08001f9c 	.word	0x08001f9c
 8001f70:	08001fa0 	.word	0x08001fa0

08001f74 <_init>:
 8001f74:	b5f8      	push	{r3, r4, r5, r6, r7, lr}
 8001f76:	bf00      	nop
 8001f78:	bcf8      	pop	{r3, r4, r5, r6, r7}
 8001f7a:	bc08      	pop	{r3}
 8001f7c:	469e      	mov	lr, r3
 8001f7e:	4770      	bx	lr

08001f80 <_fini>:
 8001f80:	b5f8      	push	{r3, r4, r5, r6, r7, lr}
 8001f82:	bf00      	nop
 8001f84:	bcf8      	pop	{r3, r4, r5, r6, r7}
 8001f86:	bc08      	pop	{r3}
 8001f88:	469e      	mov	lr, r3
 8001f8a:	4770      	bx	lr
